ARM Linker, 5.03 [Build 76] [MDK-ARM Standard]

==============================================================================

Section Cross References

    startup_stm32f10x_hd.o(RESET) refers to startup_stm32f10x_hd.o(STACK) for __initial_sp
    startup_stm32f10x_hd.o(RESET) refers to startup_stm32f10x_hd.o(.text) for Reset_Handler
    startup_stm32f10x_hd.o(RESET) refers to mma7660fc.o(i.EXTI0_IRQHandler) for EXTI0_IRQHandler
    startup_stm32f10x_hd.o(RESET) refers to nrf24l01.o(i.EXTI9_5_IRQHandler) for EXTI9_5_IRQHandler
    startup_stm32f10x_hd.o(RESET) refers to stm32f10x_it.o(i.TIM2_IRQHandler) for TIM2_IRQHandler
    startup_stm32f10x_hd.o(RESET) refers to pcm.o(i.TIM3_IRQHandler) for TIM3_IRQHandler
    startup_stm32f10x_hd.o(RESET) refers to singlewireslave.o(i.EXTI15_10_IRQHandler) for EXTI15_10_IRQHandler
    startup_stm32f10x_hd.o(.text) refers to system_stm32f10x.o(i.SystemInit) for SystemInit
    startup_stm32f10x_hd.o(.text) refers to entry.o(.ARM.Collect$$$$00000000) for __main
    main.o(i.main) refers to xiaomu.o(i.slaver_main) for slaver_main
    stm32f10x_it.o(i.TIM2_IRQHandler) refers to stm32f10x_tim.o(i.TIM_GetITStatus) for TIM_GetITStatus
    stm32f10x_it.o(i.TIM2_IRQHandler) refers to stm32f10x_tim.o(i.TIM_ClearITPendingBit) for TIM_ClearITPendingBit
    stm32f10x_it.o(i.TIM2_IRQHandler) refers to cmos.o(i.CMOS_TimerProcess) for CMOS_TimerProcess
    stm32f10x_it.o(i.TIM2_IRQHandler) refers to motor.o(i.Motor_Check) for Motor_Check
    stm32f10x_it.o(i.TIM2_IRQHandler) refers to send.o(i.sendservice) for sendservice
    stm32f10x_it.o(i.TIM2_IRQHandler) refers to stm32f10x_it.o(.data) for halfmscnt
    xiaomu.o(i.GEA_PowerOff) refers to xiaomu.o(i.slaverpowerOff) for slaverpowerOff
    xiaomu.o(i.GEA_Transport) refers to xiaomu.o(i.slaverpowerOff) for slaverpowerOff
    xiaomu.o(i.G_CallFuntion) refers to genginecfg.o(.constdata) for TB_GE_MsgApiInfo
    xiaomu.o(i.SW_Check) refers to memseta.o(.text) for __aeabi_memclr4
    xiaomu.o(i.SW_Check) refers to singlewireslave.o(i.SWS_BytesToRead) for SWS_BytesToRead
    xiaomu.o(i.SW_Check) refers to singlewireslave.o(i.SWS_getBytes) for SWS_getBytes
    xiaomu.o(i.SW_Check) refers to singlewireslave.o(i.SWS_ReadBytes) for SWS_ReadBytes
    xiaomu.o(i.SW_Check) refers to config.o(i.nRF_getAddr) for nRF_getAddr
    xiaomu.o(i.SW_Check) refers to singlewireslave.o(i.SWS_SendBytes) for SWS_SendBytes
    xiaomu.o(i.SW_Check) refers to config.o(i.nRF_setAddr) for nRF_setAddr
    xiaomu.o(i.SW_Check) refers to config.o(i.readSlaverID) for readSlaverID
    xiaomu.o(i.SW_Check) refers to config.o(i.WriteSlaverID) for WriteSlaverID
    xiaomu.o(i.SW_Check) refers to cmos.o(i.mDelay) for mDelay
    xiaomu.o(i.SW_Check) refers to config.o(i.Resetproisok) for Resetproisok
    xiaomu.o(i.SW_Check) refers to startup_stm32f10x_hd.o(.text) for SystemReset
    xiaomu.o(i.SW_Check) refers to cmos.o(i.CMOS_GetTimer) for CMOS_GetTimer
    xiaomu.o(i.SW_Check) refers to oneline.o(i.ONELINE_Init) for ONELINE_Init
    xiaomu.o(i.SW_Check) refers to nrf24l01.o(i.nRF_TxSetRP1P2) for nRF_TxSetRP1P2
    xiaomu.o(i.SW_Check) refers to singlewireslave.o(.data) for _send_buf
    xiaomu.o(i.checkpower) refers to battery.o(i.Bat_GetAD) for Bat_GetAD
    xiaomu.o(i.checkpower) refers to display.o(i.Display_Initialization) for Display_Initialization
    xiaomu.o(i.checkpower) refers to display.o(i.Console_Open) for Console_Open
    xiaomu.o(i.checkpower) refers to stm32f10x_iwdg.o(i.IWDG_ReloadCounter) for IWDG_ReloadCounter
    xiaomu.o(i.checkpower) refers to cmos.o(i.mDelay) for mDelay
    xiaomu.o(i.checkpower) refers to cmos.o(i.CMOS_GetTimer) for CMOS_GetTimer
    xiaomu.o(i.checkpower) refers to battery.o(i.Bat_IsChargForSlave) for Bat_IsChargForSlave
    xiaomu.o(i.checkpower) refers to cmos.o(i.CMOS_GetTimerCount) for CMOS_GetTimerCount
    xiaomu.o(i.checkpower) refers to xiaomu.o(i.shutdown) for shutdown
    xiaomu.o(i.checkpower) refers to battery.o(i.Bat_IsCharging) for Bat_IsCharging
    xiaomu.o(i.checkpower) refers to xiaomu.o(.data) for powersum
    xiaomu.o(i.initionNRF) refers to nrf.o(i.nRF_Initialization) for nRF_Initialization
    xiaomu.o(i.initionNRF) refers to config.o(i.nRF_updateAddr) for nRF_updateAddr
    xiaomu.o(i.initionNRF) refers to hardware.o(i.hardware_main) for hardware_main
    xiaomu.o(i.initionNRF) refers to nrf24l01.o(i.nRF_InitReg) for nRF_InitReg
    xiaomu.o(i.initionNRF) refers to nrf24l01.o(i.nRF_EXTIcfg) for nRF_EXTIcfg
    xiaomu.o(i.initionNRF) refers to nrf24l01.o(i.nRF_RecieveMode) for nRF_RecieveMode
    xiaomu.o(i.nRF_IRQHandler) refers to cmos.o(i.ClrAutoPowerOff) for ClrAutoPowerOff
    xiaomu.o(i.nRF_IRQHandler) refers to nrf24l01.o(i.nRF_ReadRxBuffer) for nRF_ReadRxBuffer
    xiaomu.o(i.nRF_IRQHandler) refers to cmlib.o(i.FIFO_GetPushIndex) for FIFO_GetPushIndex
    xiaomu.o(i.nRF_IRQHandler) refers to nrf24l01.o(i.SendMessage) for SendMessage
    xiaomu.o(i.nRF_IRQHandler) refers to genginecfg.o(.constdata) for TB_GE_MsgApiInfo
    xiaomu.o(i.nRF_IRQHandler) refers to xiaomu.o(.data) for ppid
    xiaomu.o(i.nRF_IRQHandler) refers to nrf.o(.data) for R_nRF_Fifo
    xiaomu.o(i.nRF_IRQHandler) refers to nrf.o(.bss) for R_nRF_Buffer
    xiaomu.o(i.nRF_ReceiveDataHandler) refers to cmos.o(i.ClrAutoPowerOff) for ClrAutoPowerOff
    xiaomu.o(i.nRF_ReceiveDataHandler) refers to nrf24l01.o(i.nRF_ReadRxBuffer) for nRF_ReadRxBuffer
    xiaomu.o(i.nRF_ReceiveDataHandler) refers to oneline.o(i.setLine) for setLine
    xiaomu.o(i.nRF_ReceiveDataHandler) refers to cmos.o(i.uDelay) for uDelay
    xiaomu.o(i.nRF_ReceiveDataHandler) refers to cmlib.o(i.ccopy) for ccopy
    xiaomu.o(i.nRF_ReceiveDataHandler) refers to stm32f10x_exti.o(i.EXTI_ClearITPendingBit) for EXTI_ClearITPendingBit
    xiaomu.o(i.nRF_ReceiveDataHandler) refers to nrf24l01.o(i.nRF_ClearStatusRegister) for nRF_ClearStatusRegister
    xiaomu.o(i.nRF_ReceiveDataHandler) refers to nrf24l01.o(i.nRF_RecieveMode) for nRF_RecieveMode
    xiaomu.o(i.nRF_ReceiveDataHandler) refers to xiaomu.o(.data) for data_pid
    xiaomu.o(i.nRF_ReceiveDataHandler) refers to xiaomu.o(.bss) for dataRbuf
    xiaomu.o(i.resetupdate) refers to xiaomu.o(.data) for forcnt
    xiaomu.o(i.shutdown) refers to mma7660fc.o(i.MMA7660FC_Init) for MMA7660FC_Init
    xiaomu.o(i.shutdown) refers to mma7660fc.o(i.MMA7660FC_Standby) for MMA7660FC_Standby
    xiaomu.o(i.shutdown) refers to stm32f10x_iwdg.o(i.IWDG_ReloadCounter) for IWDG_ReloadCounter
    xiaomu.o(i.shutdown) refers to mma7660fc.o(i.poweroff) for poweroff
    xiaomu.o(i.shutdown) refers to cmos.o(i.mDelay) for mDelay
    xiaomu.o(i.slaver_main) refers to mma7660fc.o(i.poweron) for poweron
    xiaomu.o(i.slaver_main) refers to cmos.o(i.CMOS_Initialization) for CMOS_Initialization
    xiaomu.o(i.slaver_main) refers to usart.o(i.RS_Init) for RS_Init
    xiaomu.o(i.slaver_main) refers to stm32f10x_iwdg.o(i.IWDG_WriteAccessCmd) for IWDG_WriteAccessCmd
    xiaomu.o(i.slaver_main) refers to stm32f10x_iwdg.o(i.IWDG_SetPrescaler) for IWDG_SetPrescaler
    xiaomu.o(i.slaver_main) refers to stm32f10x_iwdg.o(i.IWDG_SetReload) for IWDG_SetReload
    xiaomu.o(i.slaver_main) refers to stm32f10x_iwdg.o(i.IWDG_Enable) for IWDG_Enable
    xiaomu.o(i.slaver_main) refers to stm32f10x_dbgmcu.o(i.DBGMCU_Config) for DBGMCU_Config
    xiaomu.o(i.slaver_main) refers to stm32f10x_iwdg.o(i.IWDG_ReloadCounter) for IWDG_ReloadCounter
    xiaomu.o(i.slaver_main) refers to battery.o(i.Bat_Init) for Bat_Init
    xiaomu.o(i.slaver_main) refers to battery.o(i.Bat_GetAD) for Bat_GetAD
    xiaomu.o(i.slaver_main) refers to xiaomu.o(i.checkpower) for checkpower
    xiaomu.o(i.slaver_main) refers to flash.o(i.Flash_Init) for Flash_Init
    xiaomu.o(i.slaver_main) refers to file.o(i.File_SetBaseAddr) for File_SetBaseAddr
    xiaomu.o(i.slaver_main) refers to config.o(i.InitConfig) for InitConfig
    xiaomu.o(i.slaver_main) refers to sentence.o(i.sndInit) for sndInit
    xiaomu.o(i.slaver_main) refers to singlewireslave.o(i.SWS_Init) for SWS_Init
    xiaomu.o(i.slaver_main) refers to motor.o(i.Motor_Init) for Motor_Init
    xiaomu.o(i.slaver_main) refers to g-sensor.o(i.gSensor_Init) for gSensor_Init
    xiaomu.o(i.slaver_main) refers to gd62429.o(i.GD62429_GPIO_Init) for GD62429_GPIO_Init
    xiaomu.o(i.slaver_main) refers to send.o(i.send_Init) for send_Init
    xiaomu.o(i.slaver_main) refers to display.o(i.Display_Initialization) for Display_Initialization
    xiaomu.o(i.slaver_main) refers to xiaomu.o(i.initionNRF) for initionNRF
    xiaomu.o(i.slaver_main) refers to hdr.o(i.hdr_Init) for hdr_Init
    xiaomu.o(i.slaver_main) refers to cmos.o(i.CMOS_GetTimer) for CMOS_GetTimer
    xiaomu.o(i.slaver_main) refers to display.o(i.Console_Open) for Console_Open
    xiaomu.o(i.slaver_main) refers to cmos.o(i.mDelay) for mDelay
    xiaomu.o(i.slaver_main) refers to config.o(i.readSlaverID) for readSlaverID
    xiaomu.o(i.slaver_main) refers to hdr.o(i.GEA_AddAnimation) for GEA_AddAnimation
    xiaomu.o(i.slaver_main) refers to motor.o(i.GEA_MotorCtrl) for GEA_MotorCtrl
    xiaomu.o(i.slaver_main) refers to battery.o(i.Bat_IsChargForSlave) for Bat_IsChargForSlave
    xiaomu.o(i.slaver_main) refers to g-sensor.o(i.gSensor_Update) for gSensor_Update
    xiaomu.o(i.slaver_main) refers to hdr.o(i.play_check) for play_check
    xiaomu.o(i.slaver_main) refers to display.o(i.Display_CheckUpdate) for Display_CheckUpdate
    xiaomu.o(i.slaver_main) refers to sentence.o(i.stCheck) for stCheck
    xiaomu.o(i.slaver_main) refers to xiaomu.o(i.SW_Check) for SW_Check
    xiaomu.o(i.slaver_main) refers to nrf.o(i.nRF_GetMessage) for nRF_GetMessage
    xiaomu.o(i.slaver_main) refers to xiaomu.o(i.G_CallFuntion) for G_CallFuntion
    xiaomu.o(i.slaver_main) refers to xiaomu.o(i.updategame) for updategame
    xiaomu.o(i.slaver_main) refers to cmos.o(i.CheckAutoPowerOff) for CheckAutoPowerOff
    xiaomu.o(i.slaver_main) refers to xiaomu.o(i.GEA_PowerOff) for GEA_PowerOff
    xiaomu.o(i.slaver_main) refers to cmos.o(i.CMOS_GetTimerCount) for CMOS_GetTimerCount
    xiaomu.o(i.slaver_main) refers to sentence.o(i.GEA_GetSpeechStatus) for GEA_GetSpeechStatus
    xiaomu.o(i.slaver_main) refers to motor.o(i.getMotorFlag) for getMotorFlag
    xiaomu.o(i.slaver_main) refers to display.o(i.RefreshScreen) for RefreshScreen
    xiaomu.o(i.slaver_main) refers to display.o(i.RefreshGraphs) for RefreshGraphs
    xiaomu.o(i.slaver_main) refers to xiaomu.o(.data) for statusreg
    xiaomu.o(i.slaver_main) refers to cmos.o(.data) for BkAutoPowerOff
    xiaomu.o(i.slaverpowerOff) refers to motor.o(i.Motor_Off) for Motor_Off
    xiaomu.o(i.slaverpowerOff) refers to sentence.o(i.GEA_StopSpeech) for GEA_StopSpeech
    xiaomu.o(i.slaverpowerOff) refers to hdr.o(i.GEA_StopAnimation) for GEA_StopAnimation
    xiaomu.o(i.slaverpowerOff) refers to slaverapis2.o(i.GEA_ClearLayer) for GEA_ClearLayer
    xiaomu.o(i.slaverpowerOff) refers to config.o(i.readSlaverID) for readSlaverID
    xiaomu.o(i.slaverpowerOff) refers to hdr.o(i.GEA_AddAnimation) for GEA_AddAnimation
    xiaomu.o(i.slaverpowerOff) refers to hdr.o(i.play_check) for play_check
    xiaomu.o(i.slaverpowerOff) refers to display.o(i.Display_CheckUpdate) for Display_CheckUpdate
    xiaomu.o(i.slaverpowerOff) refers to hdr.o(i.play_status) for play_status
    xiaomu.o(i.slaverpowerOff) refers to stm32f10x_iwdg.o(i.IWDG_ReloadCounter) for IWDG_ReloadCounter
    xiaomu.o(i.slaverpowerOff) refers to xiaomu.o(i.shutdown) for shutdown
    xiaomu.o(i.updateend) refers to xiaomu.o(i.updategame) for updategame
    xiaomu.o(i.updateend) refers to xiaomu.o(i.resetupdate) for resetupdate
    xiaomu.o(i.updateend) refers to file.o(i.File_SetBaseAddr) for File_SetBaseAddr
    xiaomu.o(i.updateend) refers to xiaomu.o(.data) for writeIndex
    xiaomu.o(i.updategame) refers to flash.o(i.Flash_4K_Erase_Start) for Flash_4K_Erase_Start
    xiaomu.o(i.updategame) refers to flash.o(i.Flash_Write) for Flash_Write
    xiaomu.o(i.updategame) refers to xiaomu.o(.data) for writeIndex
    xiaomu.o(i.updategame) refers to xiaomu.o(.bss) for dataRbuf
    hardware.o(i.CRC_MCU) refers to stm32f10x_iwdg.o(i.IWDG_ReloadCounter) for IWDG_ReloadCounter
    hardware.o(i.CRC_MCU) refers to stm32f10x_crc.o(i.CRC_ResetDR) for CRC_ResetDR
    hardware.o(i.CRC_MCU) refers to stm32f10x_crc.o(i.CRC_CalcBlockCRC) for CRC_CalcBlockCRC
    hardware.o(i.CRC_SPI) refers to stm32f10x_crc.o(i.CRC_ResetDR) for CRC_ResetDR
    hardware.o(i.CRC_SPI) refers to flash.o(i.Flash_Read) for Flash_Read
    hardware.o(i.CRC_SPI) refers to stm32f10x_crc.o(i.CRC_CalcBlockCRC) for CRC_CalcBlockCRC
    hardware.o(i.CRC_SPI) refers to stm32f10x_iwdg.o(i.IWDG_ReloadCounter) for IWDG_ReloadCounter
    hardware.o(i.CRC_SPI) refers to stm32f10x_crc.o(i.CRC_GetCRC) for CRC_GetCRC
    hardware.o(i.hardware_main) refers to memcpya.o(.text) for __aeabi_memcpy4
    hardware.o(i.hardware_main) refers to slaverapis2.o(i.GEA_ClearLayer) for GEA_ClearLayer
    hardware.o(i.hardware_main) refers to display.o(i.ClearScreen) for ClearScreen
    hardware.o(i.hardware_main) refers to display.o(i.PutString) for PutString
    hardware.o(i.hardware_main) refers to display.o(i.FrushRectangle) for FrushRectangle
    hardware.o(i.hardware_main) refers to display.o(i.RefreshScreen) for RefreshScreen
    hardware.o(i.hardware_main) refers to hardware.o(i.CRC_MCU) for CRC_MCU
    hardware.o(i.hardware_main) refers to display.o(i.PutHexBlock) for PutHexBlock
    hardware.o(i.hardware_main) refers to hardware.o(i.CRC_SPI) for CRC_SPI
    hardware.o(i.hardware_main) refers to sentence.o(i.GEA_PlaySpeech) for GEA_PlaySpeech
    hardware.o(i.hardware_main) refers to slaverapis2.o(i.GEA_GetJoyStickStatus) for GEA_GetJoyStickStatus
    hardware.o(i.hardware_main) refers to cmos.o(i.CMOS_GetTimer) for CMOS_GetTimer
    hardware.o(i.hardware_main) refers to g-sensor.o(i.gSensor_Update) for gSensor_Update
    hardware.o(i.hardware_main) refers to sentence.o(i.stCheck) for stCheck
    hardware.o(i.hardware_main) refers to stm32f10x_iwdg.o(i.IWDG_ReloadCounter) for IWDG_ReloadCounter
    hardware.o(i.hardware_main) refers to cmos.o(i.mDelay) for mDelay
    hardware.o(i.hardware_main) refers to sentence.o(i.GEA_GetSpeechStatus) for GEA_GetSpeechStatus
    hardware.o(i.hardware_main) refers to xiaomu.o(i.slaverpowerOff) for slaverpowerOff
    hardware.o(i.hardware_main) refers to config.o(i.getConfig) for getConfig
    hardware.o(i.hardware_main) refers to config.o(i.writeconfig) for writeconfig
    hardware.o(i.hardware_main) refers to hardware.o(.constdata) for .constdata
    usart.o(i.RS_ConfigHW) refers to stm32f10x_rcc.o(i.RCC_APB1PeriphClockCmd) for RCC_APB1PeriphClockCmd
    usart.o(i.RS_ConfigHW) refers to stm32f10x_rcc.o(i.RCC_APB2PeriphClockCmd) for RCC_APB2PeriphClockCmd
    usart.o(i.RS_ConfigHW) refers to stm32f10x_gpio.o(i.GPIO_PinRemapConfig) for GPIO_PinRemapConfig
    usart.o(i.RS_ConfigHW) refers to stm32f10x_gpio.o(i.GPIO_Init) for GPIO_Init
    usart.o(i.RS_ConfigHW) refers to stm32f10x_usart.o(i.USART_Init) for USART_Init
    usart.o(i.RS_ConfigHW) refers to stm32f10x_usart.o(i.USART_ITConfig) for USART_ITConfig
    usart.o(i.RS_ConfigHW) refers to misc.o(i.NVIC_Init) for NVIC_Init
    usart.o(i.RS_ConfigHW) refers to stm32f10x_usart.o(i.USART_Cmd) for USART_Cmd
    usart.o(i.RS_ConfigReg) refers to cmlib.o(i.FIFO_Init) for FIFO_Init
    usart.o(i.RS_ConfigReg) refers to usart.o(.data) for R_RxFIFO
    usart.o(i.RS_GetMessage) refers to cmlib.o(i.FIFO_ReadData) for FIFO_ReadData
    usart.o(i.RS_GetMessage) refers to usart.o(.data) for R_RxFIFO
    usart.o(i.RS_GetMessage) refers to usart.o(.bss) for R_RxArray
    usart.o(i.RS_Init) refers to usart.o(i.RS_ConfigHW) for RS_ConfigHW
    usart.o(i.RS_Init) refers to usart.o(i.RS_ConfigReg) for RS_ConfigReg
    usart.o(i.RS_RecieveData) refers to stm32f10x_usart.o(i.USART_GetFlagStatus) for USART_GetFlagStatus
    usart.o(i.RS_RecieveData) refers to stm32f10x_usart.o(i.USART_ReceiveData) for USART_ReceiveData
    usart.o(i.RS_RecieveData) refers to stm32f10x_usart.o(i.USART_GetITStatus) for USART_GetITStatus
    usart.o(i.RS_RecieveData) refers to cmlib.o(i.FIFO_WriteData) for FIFO_WriteData
    usart.o(i.RS_RecieveData) refers to usart.o(.data) for R_RxFIFO
    usart.o(i.RS_RecieveData) refers to usart.o(.bss) for R_RxArray
    usart.o(i.RS_SendBlock) refers to usart.o(i.RS_SendMessage) for RS_SendMessage
    usart.o(i.RS_SendMessage) refers to stm32f10x_usart.o(i.USART_GetFlagStatus) for USART_GetFlagStatus
    usart.o(i.RS_SendMessage) refers to stm32f10x_usart.o(i.USART_SendData) for USART_SendData
    usart.o(i.RS_SendString) refers to usart.o(i.RS_SendMessage) for RS_SendMessage
    usart.o(i.fputc) refers to stm32f10x_usart.o(i.USART_SendData) for USART_SendData
    display.o(i.AddGraph) refers to display.o(.bss) for g_graphs
    display.o(i.ClearGraphLayer) refers to display.o(.bss) for g_graphs
    display.o(i.ClearScreen) refers to display.o(i.FrushDspBuffer) for FrushDspBuffer
    display.o(i.Console_Add_Hex) refers to display.o(i.Console_NextLine) for Console_NextLine
    display.o(i.Console_Add_Hex) refers to display.o(i.PutHex) for PutHex
    display.o(i.Console_Add_Hex) refers to display.o(i.RefreshScreen) for RefreshScreen
    display.o(i.Console_Add_Hex) refers to display.o(.data) for R_ConsoleReg
    display.o(i.Console_Add_String) refers to display.o(i.Console_NextLine) for Console_NextLine
    display.o(i.Console_Add_String) refers to display.o(i.PutChar) for PutChar
    display.o(i.Console_Add_String) refers to display.o(i.RefreshScreen) for RefreshScreen
    display.o(i.Console_Add_String) refers to display.o(.data) for R_ConsoleReg
    display.o(i.Console_Clear) refers to display.o(i.FrushDspBuffer) for FrushDspBuffer
    display.o(i.Console_Clear) refers to display.o(i.PutString) for PutString
    display.o(i.Console_Clear) refers to display.o(i.RefreshScreen) for RefreshScreen
    display.o(i.Console_Clear) refers to display.o(.data) for R_ConsoleReg
    display.o(i.Console_NextLine) refers to display.o(i.FrushDspBuffer) for FrushDspBuffer
    display.o(i.Console_NextLine) refers to display.o(i.PutString) for PutString
    display.o(i.Console_NextLine) refers to display.o(.data) for R_ConsoleReg
    display.o(i.Console_Open) refers to display.o(i.FrushDspBuffer) for FrushDspBuffer
    display.o(i.Console_Open) refers to display.o(i.PutString) for PutString
    display.o(i.Console_Open) refers to display.o(i.RefreshScreen) for RefreshScreen
    display.o(i.Console_Open) refers to display.o(.data) for R_ConsoleReg
    display.o(i.Display_CheckUpdate) refers to display.o(i.RefreshGraphs) for RefreshGraphs
    display.o(i.Display_CheckUpdate) refers to display.o(.data) for DisplayFLAG
    display.o(i.Display_Initialization) refers to lcd.o(i.Lcd_Init) for Lcd_Init
    display.o(i.Display_Initialization) refers to display.o(i.ClearScreen) for ClearScreen
    display.o(i.Display_Initialization) refers to display.o(i.RefreshScreen) for RefreshScreen
    display.o(i.Display_Initialization) refers to lcd.o(i.Lcd_initOn) for Lcd_initOn
    display.o(i.Display_Initialization) refers to display.o(.data) for displayisinit
    display.o(i.Display_Initialization) refers to xiaomu.o(.data) for statusreg
    display.o(i.Display_Initialization) refers to display.o(.bss) for g_graphs
    display.o(i.FrushDspBuffer) refers to display.o(.bss) for R_DisplayBuffer
    display.o(i.FrushRectangle) refers to display.o(.bss) for R_DisplayBuffer
    display.o(i.Getdisplaybuf) refers to display.o(.bss) for R_DisplayBuffer
    display.o(i.PutChar) refers to display.o(i.PutChar8x16) for PutChar8x16
    display.o(i.PutChar8x16) refers to display.o(.data) for TB_ASCII8X16
    display.o(i.PutChar8x16) refers to display.o(.bss) for R_DisplayBuffer
    display.o(i.PutGraph) refers to display.o(i.RGB2Y) for RGB2Y
    display.o(i.PutGraph) refers to file.o(i.File_GetGraphSum) for File_GetGraphSum
    display.o(i.PutGraph) refers to file.o(i.File_GetGraphInfo) for File_GetGraphInfo
    display.o(i.PutGraph) refers to display.o(i.GetVisibleRegion) for GetVisibleRegion
    display.o(i.PutGraph) refers to file.o(i.File_Read) for File_Read
    display.o(i.PutGraph) refers to display.o(i.RGBtosixteen) for RGBtosixteen
    display.o(i.PutGraph) refers to display.o(.bss) for R_DisplayBuffer
    display.o(i.PutGraphBuf) refers to display.o(i.GetVisibleRegion) for GetVisibleRegion
    display.o(i.PutGraphBuf) refers to display.o(.bss) for R_DisplayBuffer
    display.o(i.PutHex) refers to display.o(i.PutChar) for PutChar
    display.o(i.PutHexBlock) refers to display.o(i.PutHex) for PutHex
    display.o(i.PutNum) refers to display.o(i.PutChar) for PutChar
    display.o(i.PutString) refers to display.o(i.PutChar8x16) for PutChar8x16
    display.o(i.RGB2Y) refers to display.o(.bss) for R_DisplayBuffer
    display.o(i.RefreshGraphs) refers to display.o(i.FrushDspBuffer) for FrushDspBuffer
    display.o(i.RefreshGraphs) refers to display.o(i.PutGraph) for PutGraph
    display.o(i.RefreshGraphs) refers to sentence.o(i.stCheck) for stCheck
    display.o(i.RefreshGraphs) refers to display.o(i.RefreshScreen) for RefreshScreen
    display.o(i.RefreshGraphs) refers to display.o(.bss) for g_graphs
    display.o(i.RefreshScreen) refers to display.o(i.PutGraph) for PutGraph
    display.o(i.RefreshScreen) refers to lcd.o(i.Lcd_RefreshScreen) for Lcd_RefreshScreen
    display.o(i.RefreshScreen) refers to xiaomu.o(.data) for isBatCharging
    display.o(i.RefreshScreen) refers to display.o(.bss) for R_DisplayBuffer
    display.o(i.SetDisplayUpdate) refers to display.o(.data) for DisplayFLAG
    file.o(i.File_GetAudioSum) refers to file.o(i.GetResourceItemNum) for GetResourceItemNum
    file.o(i.File_GetGraphInfo) refers to file.o(i.GetResourceItemAddr) for GetResourceItemAddr
    file.o(i.File_GetGraphInfo) refers to file.o(i.GetResourceData) for GetResourceData
    file.o(i.File_GetGraphSum) refers to file.o(i.GetResourceItemNum) for GetResourceItemNum
    file.o(i.File_Read) refers to flash.o(i.Flash_Read) for Flash_Read
    file.o(i.File_SetBaseAddr) refers to flash.o(i.Flash_Read) for Flash_Read
    file.o(i.File_SetBaseAddr) refers to file.o(.bss) for str_data_base
    file.o(i.GetResourceAddr) refers to flash.o(i.Flash_Read) for Flash_Read
    file.o(i.GetResourceAddr) refers to file.o(.bss) for str_data_base
    file.o(i.GetResourceData) refers to file.o(i.File_Read) for File_Read
    file.o(i.GetResourceDataP) refers to file.o(i.GetResourceData) for GetResourceData
    file.o(i.GetResourceItemAddr) refers to file.o(i.GetResourceAddr) for GetResourceAddr
    file.o(i.GetResourceItemAddr) refers to flash.o(i.Flash_Read) for Flash_Read
    file.o(i.GetResourceItemNum) refers to file.o(i.GetResourceAddr) for GetResourceAddr
    file.o(i.GetResourceItemNum) refers to flash.o(i.Flash_Read) for Flash_Read
    nrf.o(i.nRF_GetMessage) refers to cmlib.o(i.FIFO_GetPopIndex) for FIFO_GetPopIndex
    nrf.o(i.nRF_GetMessage) refers to nrf.o(.data) for R_nRF_Fifo
    nrf.o(i.nRF_GetMessage) refers to nrf.o(.bss) for R_nRF_Buffer
    nrf.o(i.nRF_Initialization) refers to cmlib.o(i.FIFO_Init) for FIFO_Init
    nrf.o(i.nRF_Initialization) refers to nrf24l01.o(i.nRF_Init) for nRF_Init
    nrf.o(i.nRF_Initialization) refers to nrf24l01.o(i.nRF_Check) for nRF_Check
    nrf.o(i.nRF_Initialization) refers to display.o(i.Console_Open) for Console_Open
    nrf.o(i.nRF_Initialization) refers to cmos.o(i.mDelay) for mDelay
    nrf.o(i.nRF_Initialization) refers to startup_stm32f10x_hd.o(.text) for SystemReset
    nrf.o(i.nRF_Initialization) refers to nrf.o(.data) for R_nRF_Fifo
    nrf.o(i.nRF_SetAddress) refers to nrf24l01.o(.data) for R_nRF_Addr
    g-sensor.o(i.gSensor_Box_X) refers to g-sensor.o(.data) for g_box_x
    g-sensor.o(i.gSensor_Box_X_Acceleration) refers to mma7660fc.o(i.MMA7660FC_To_Acceleration) for MMA7660FC_To_Acceleration
    g-sensor.o(i.gSensor_Box_X_Acceleration) refers to g-sensor.o(.data) for g_box_x
    g-sensor.o(i.gSensor_Box_X_Angle) refers to mma7660fc.o(i.MMA7660FC_To_Angle) for MMA7660FC_To_Angle
    g-sensor.o(i.gSensor_Box_X_Angle) refers to g-sensor.o(.data) for g_box_x
    g-sensor.o(i.gSensor_Box_Y) refers to g-sensor.o(.data) for g_box_y
    g-sensor.o(i.gSensor_Box_Y_Acceleration) refers to mma7660fc.o(i.MMA7660FC_To_Acceleration) for MMA7660FC_To_Acceleration
    g-sensor.o(i.gSensor_Box_Y_Acceleration) refers to g-sensor.o(.data) for g_box_y
    g-sensor.o(i.gSensor_Box_Y_Angle) refers to mma7660fc.o(i.MMA7660FC_To_Angle) for MMA7660FC_To_Angle
    g-sensor.o(i.gSensor_Box_Y_Angle) refers to g-sensor.o(.data) for g_box_y
    g-sensor.o(i.gSensor_Box_Z) refers to g-sensor.o(.data) for g_box_z
    g-sensor.o(i.gSensor_Box_Z_Acceleration) refers to mma7660fc.o(i.MMA7660FC_To_Acceleration) for MMA7660FC_To_Acceleration
    g-sensor.o(i.gSensor_Box_Z_Acceleration) refers to g-sensor.o(.data) for g_box_z
    g-sensor.o(i.gSensor_Box_Z_Angle) refers to mma7660fc.o(i.MMA7660FC_To_Angle) for MMA7660FC_To_Angle
    g-sensor.o(i.gSensor_Box_Z_Angle) refers to g-sensor.o(.data) for g_box_z
    g-sensor.o(i.gSensor_Init) refers to mma7660fc.o(i.MMA7660FC_Init) for MMA7660FC_Init
    g-sensor.o(i.gSensor_LastShakeTime) refers to g-sensor.o(.data) for last_shake_time
    g-sensor.o(i.gSensor_TopSurface) refers to g-sensor.o(.data) for g_box_x
    g-sensor.o(i.gSensor_Update) refers to mma7660fc.o(i.MMA7660FC_XYZ) for MMA7660FC_XYZ
    g-sensor.o(i.gSensor_Update) refers to mma7660fc.o(i.MMA7660FC_GetShakeState) for MMA7660FC_GetShakeState
    g-sensor.o(i.gSensor_Update) refers to g-sensor.o(i.Get_Box_XYZ) for Get_Box_XYZ
    g-sensor.o(i.gSensor_Update) refers to g-sensor.o(.data) for g_z
    g-sensor.o(i.gSensor_WaveRank) refers to g-sensor.o(.data) for g_ss
    g-sensor.o(i.gSensor_X) refers to g-sensor.o(.data) for g_x
    g-sensor.o(i.gSensor_X_Acceleration) refers to mma7660fc.o(i.MMA7660FC_To_Acceleration) for MMA7660FC_To_Acceleration
    g-sensor.o(i.gSensor_X_Acceleration) refers to g-sensor.o(.data) for g_x
    g-sensor.o(i.gSensor_X_Angle) refers to mma7660fc.o(i.MMA7660FC_To_Angle) for MMA7660FC_To_Angle
    g-sensor.o(i.gSensor_X_Angle) refers to g-sensor.o(.data) for g_x
    g-sensor.o(i.gSensor_Y) refers to g-sensor.o(.data) for g_y
    g-sensor.o(i.gSensor_Y_Acceleration) refers to mma7660fc.o(i.MMA7660FC_To_Acceleration) for MMA7660FC_To_Acceleration
    g-sensor.o(i.gSensor_Y_Acceleration) refers to g-sensor.o(.data) for g_y
    g-sensor.o(i.gSensor_Y_Angle) refers to mma7660fc.o(i.MMA7660FC_To_Angle) for MMA7660FC_To_Angle
    g-sensor.o(i.gSensor_Y_Angle) refers to g-sensor.o(.data) for g_y
    g-sensor.o(i.gSensor_Z_Acceleration) refers to mma7660fc.o(i.MMA7660FC_To_Acceleration) for MMA7660FC_To_Acceleration
    g-sensor.o(i.gSensor_Z_Acceleration) refers to g-sensor.o(.data) for g_z
    g-sensor.o(i.gSensor_Z_Angle) refers to mma7660fc.o(i.MMA7660FC_To_Angle) for MMA7660FC_To_Angle
    g-sensor.o(i.gSensor_Z_Angle) refers to g-sensor.o(.data) for g_z
    g-sensor.o(i.gSnesor_Z) refers to g-sensor.o(.data) for g_z
    slaverapis2.o(i.GEA_ClePutRef) refers to display.o(i.ClearGraphLayer) for ClearGraphLayer
    slaverapis2.o(i.GEA_ClePutRef) refers to display.o(i.AddGraph) for AddGraph
    slaverapis2.o(i.GEA_ClePutRef) refers to display.o(i.RefreshGraphs) for RefreshGraphs
    slaverapis2.o(i.GEA_ClearLayer) refers to display.o(i.ClearGraphLayer) for ClearGraphLayer
    slaverapis2.o(i.GEA_GetJoyStickStatus) refers to config.o(i.readSlaverID) for readSlaverID
    slaverapis2.o(i.GEA_GetJoyStickStatus) refers to g-sensor.o(i.gSensor_WaveRank) for gSensor_WaveRank
    slaverapis2.o(i.GEA_GetJoyStickStatus) refers to g-sensor.o(i.gSensor_Box_X_Angle) for gSensor_Box_X_Angle
    slaverapis2.o(i.GEA_GetJoyStickStatus) refers to g-sensor.o(i.gSensor_Box_Y_Angle) for gSensor_Box_Y_Angle
    slaverapis2.o(i.GEA_GetJoyStickStatus) refers to g-sensor.o(i.gSensor_Box_Z_Angle) for gSensor_Box_Z_Angle
    slaverapis2.o(i.GEA_GetJoyStickStatus) refers to g-sensor.o(i.gSensor_TopSurface) for gSensor_TopSurface
    slaverapis2.o(i.GEA_GetJoyStickStatus) refers to mma7660fc.o(.data) for rockcnt
    slaverapis2.o(i.GEA_PutGraph) refers to display.o(i.AddGraph) for AddGraph
    slaverapis2.o(i.GEA_PutGraph) refers to display.o(i.RefreshGraphs) for RefreshGraphs
    slaverapis2.o(i.GEA_SetMode) refers to singlewireslave.o(i.SWS_Init) for SWS_Init
    slaverapis2.o(i.GEA_SetMode) refers to xiaomu.o(i.resetupdate) for resetupdate
    slaverapis2.o(i.GEA_SetMode) refers to xiaomu.o(i.updateend) for updateend
    slaverapis2.o(i.GEA_SetMode) refers to xiaomu.o(i.GEA_Transport) for GEA_Transport
    slaverapis2.o(i.GEA_SetMode) refers to lcd.o(i.Lcd_Off) for Lcd_Off
    slaverapis2.o(i.GEA_SetMode) refers to lcd.o(i.Lcd_On) for Lcd_On
    slaverapis2.o(i.GEA_SlaverState) refers to sentence.o(i.GEA_GetSpeechStatus) for GEA_GetSpeechStatus
    slaverapis2.o(i.GEA_SlaverState) refers to hdr.o(i.play_status) for play_status
    slaverapis2.o(i.GEA_SlaverState) refers to xiaomu.o(.data) for powerLevel
    genginecfg.o(.constdata) refers to slaverapis2.o(i.GEA_PutGraph) for GEA_PutGraph
    genginecfg.o(.constdata) refers to slaverapis2.o(i.GEA_ClearLayer) for GEA_ClearLayer
    genginecfg.o(.constdata) refers to slaverapis2.o(i.GEA_ClePutRef) for GEA_ClePutRef
    genginecfg.o(.constdata) refers to hdr.o(i.GEA_PlayAnimation) for GEA_PlayAnimation
    genginecfg.o(.constdata) refers to hdr.o(i.GEA_AddAnimation) for GEA_AddAnimation
    genginecfg.o(.constdata) refers to hdr.o(i.GEA_DeleteAnimation) for GEA_DeleteAnimation
    genginecfg.o(.constdata) refers to hdr.o(i.GEA_ClearAnimationFifo) for GEA_ClearAnimationFifo
    genginecfg.o(.constdata) refers to hdr.o(i.GEA_StopAnimation) for GEA_StopAnimation
    genginecfg.o(.constdata) refers to sentence.o(i.GEA_SetSpeechList) for GEA_SetSpeechList
    genginecfg.o(.constdata) refers to sentence.o(i.GEA_PlaySpeech) for GEA_PlaySpeech
    genginecfg.o(.constdata) refers to sentence.o(i.GEA_LoopSpeech) for GEA_LoopSpeech
    genginecfg.o(.constdata) refers to sentence.o(i.GEA_GetSpeechStatus) for GEA_GetSpeechStatus
    genginecfg.o(.constdata) refers to sentence.o(i.GEA_StopSpeech) for GEA_StopSpeech
    genginecfg.o(.constdata) refers to slaverapis2.o(i.GEA_GetJoyStickStatus) for GEA_GetJoyStickStatus
    genginecfg.o(.constdata) refers to send.o(i.GEA_GetNearStatus) for GEA_GetNearStatus
    genginecfg.o(.constdata) refers to motor.o(i.GEA_MotorCtrl) for GEA_MotorCtrl
    genginecfg.o(.constdata) refers to slaverapis2.o(i.GEA_SlaverState) for GEA_SlaverState
    genginecfg.o(.constdata) refers to cmos.o(i.GEA_SetTimCnt) for GEA_SetTimCnt
    genginecfg.o(.constdata) refers to xiaomu.o(i.GEA_PowerOff) for GEA_PowerOff
    genginecfg.o(.constdata) refers to slaverapis2.o(i.GEA_SetMode) for GEA_SetMode
    genginecfg.o(.constdata) refers to config.o(i.GEA_SetGName) for GEA_SetGName
    genginecfg.o(.constdata) refers to config.o(i.GEA_GetGName) for GEA_GetGName
    config.o(i.GEA_GetGName) refers to config.o(i.getgname) for getgname
    config.o(i.GEA_SetGName) refers to config.o(i.setgname) for setgname
    config.o(i.InitConfig) refers to flash.o(i.Flash_Read) for Flash_Read
    config.o(i.InitConfig) refers to config.o(i.configchecksum) for configchecksum
    config.o(i.InitConfig) refers to config.o(i.writeconfig) for writeconfig
    config.o(i.InitConfig) refers to config.o(.bss) for conf
    config.o(i.Resetproisok) refers to config.o(i.witeproisok) for witeproisok
    config.o(i.WriteSlaverID) refers to config.o(i.writeconfig) for writeconfig
    config.o(i.WriteSlaverID) refers to config.o(.bss) for conf
    config.o(i.getConfig) refers to config.o(.bss) for conf
    config.o(i.getgname) refers to flash.o(i.Flash_Read) for Flash_Read
    config.o(i.nRF_getAddr) refers to config.o(.bss) for conf
    config.o(i.nRF_setAddr) refers to config.o(i.writeconfig) for writeconfig
    config.o(i.nRF_setAddr) refers to config.o(i.nRF_getAddr) for nRF_getAddr
    config.o(i.nRF_setAddr) refers to nrf.o(i.nRF_SetAddress) for nRF_SetAddress
    config.o(i.nRF_setAddr) refers to nrf24l01.o(i.nRF_TxSetTXRP0) for nRF_TxSetTXRP0
    config.o(i.nRF_setAddr) refers to config.o(.bss) for conf
    config.o(i.nRF_updateAddr) refers to config.o(i.nRF_getAddr) for nRF_getAddr
    config.o(i.nRF_updateAddr) refers to nrf.o(i.nRF_SetAddress) for nRF_SetAddress
    config.o(i.nRF_updateAddr) refers to nrf24l01.o(i.nRF_TxSetTXRP0) for nRF_TxSetTXRP0
    config.o(i.nRF_updateAddr) refers to config.o(.bss) for conf
    config.o(i.readSlaverID) refers to config.o(.bss) for conf
    config.o(i.setgname) refers to flash.o(i.Flash_Read) for Flash_Read
    config.o(i.setgname) refers to flash.o(i.Flash_4K_Erase_Start) for Flash_4K_Erase_Start
    config.o(i.setgname) refers to flash.o(i.Flash_Write) for Flash_Write
    config.o(i.witeproisok) refers to config.o(i.writeconfig) for writeconfig
    config.o(i.witeproisok) refers to config.o(.bss) for conf
    config.o(i.writeconfig) refers to config.o(i.configchecksum) for configchecksum
    config.o(i.writeconfig) refers to flash.o(i.Flash_4K_Erase) for Flash_4K_Erase
    config.o(i.writeconfig) refers to flash.o(i.Flash_Write_Page) for Flash_Write_Page
    iap.o(i.Iap_Jump2Run) refers to iap.o(.emb_text) for MSR_MSP
    iap.o(i.Iap_RunBootLoader) refers to iap.o(i.Iap_Jump2Run) for Iap_Jump2Run
    hdr.o(i.GEA_AddAnimation) refers to hdr.o(i.layer2index) for layer2index
    hdr.o(i.GEA_AddAnimation) refers to hdr.o(.bss) for players
    hdr.o(i.GEA_ClearAnimationFifo) refers to hdr.o(i.hdraction) for hdraction
    hdr.o(i.GEA_DeleteAnimation) refers to hdr.o(i.hdraction) for hdraction
    hdr.o(i.GEA_PlayAnimation) refers to hdr.o(i.hdraction) for hdraction
    hdr.o(i.GEA_PlayAnimation) refers to hdr.o(i.GEA_AddAnimation) for GEA_AddAnimation
    hdr.o(i.GEA_StopAnimation) refers to hdr.o(i.hdraction) for hdraction
    hdr.o(i.hdr_Init) refers to hdr.o(i.GEA_DeleteAnimation) for GEA_DeleteAnimation
    hdr.o(i.hdr_check) refers to cmos.o(i.CMOS_GetTimer) for CMOS_GetTimer
    hdr.o(i.hdr_check) refers to file.o(i.GetResourceData) for GetResourceData
    hdr.o(i.hdr_check) refers to sentence.o(i.GEA_PlaySpeech) for GEA_PlaySpeech
    hdr.o(i.hdr_check) refers to hdr.o(i.layer2index) for layer2index
    hdr.o(i.hdr_check) refers to display.o(i.ClearGraphLayer) for ClearGraphLayer
    hdr.o(i.hdr_check) refers to display.o(i.SetDisplayUpdate) for SetDisplayUpdate
    hdr.o(i.hdr_check) refers to sentence.o(i.GEA_GetSpeechStatus) for GEA_GetSpeechStatus
    hdr.o(i.hdr_check) refers to file.o(i.GetResourceDataP) for GetResourceDataP
    hdr.o(i.hdr_check) refers to display.o(i.AddGraph) for AddGraph
    hdr.o(i.hdr_open) refers to file.o(i.GetResourceItemAddr) for GetResourceItemAddr
    hdr.o(i.hdr_open) refers to hdr.o(i.hdr_check) for hdr_check
    hdr.o(i.hdraction) refers to hdr.o(i.layer2index) for layer2index
    hdr.o(i.hdraction) refers to display.o(i.ClearGraphLayer) for ClearGraphLayer
    hdr.o(i.hdraction) refers to hdr.o(.bss) for players
    hdr.o(i.play_check) refers to hdr.o(i.hdr_open) for hdr_open
    hdr.o(i.play_check) refers to cmlib.o(i.ccopy) for ccopy
    hdr.o(i.play_check) refers to hdr.o(i.hdr_check) for hdr_check
    hdr.o(i.play_check) refers to hdr.o(.bss) for players
    hdr.o(i.play_status) refers to hdr.o(.bss) for players
    dac.o(i.DAC_Initialization) refers to dac.o(i.DAC_Reg_Config) for DAC_Reg_Config
    dac.o(i.DAC_OutPut) refers to stm32f10x_dac.o(i.DAC_SetChannel1Data) for DAC_SetChannel1Data
    dac.o(i.DAC_Reg_Config) refers to stm32f10x_rcc.o(i.RCC_APB2PeriphClockCmd) for RCC_APB2PeriphClockCmd
    dac.o(i.DAC_Reg_Config) refers to stm32f10x_rcc.o(i.RCC_APB1PeriphClockCmd) for RCC_APB1PeriphClockCmd
    dac.o(i.DAC_Reg_Config) refers to stm32f10x_gpio.o(i.GPIO_Init) for GPIO_Init
    dac.o(i.DAC_Reg_Config) refers to stm32f10x_dac.o(i.DAC_Init) for DAC_Init
    dac.o(i.DAC_Reg_Config) refers to stm32f10x_dac.o(i.DAC_Cmd) for DAC_Cmd
    nrf24l01.o(i.EXTI9_5_IRQHandler) refers to stm32f10x_exti.o(i.EXTI_GetITStatus) for EXTI_GetITStatus
    nrf24l01.o(i.EXTI9_5_IRQHandler) refers to nrf24l01.o(i.nRF_GetStatusRegister) for nRF_GetStatusRegister
    nrf24l01.o(i.EXTI9_5_IRQHandler) refers to cmos.o(i.mDelay) for mDelay
    nrf24l01.o(i.EXTI9_5_IRQHandler) refers to xiaomu.o(i.nRF_IRQHandler) for nRF_IRQHandler
    nrf24l01.o(i.EXTI9_5_IRQHandler) refers to xiaomu.o(i.nRF_ReceiveDataHandler) for nRF_ReceiveDataHandler
    nrf24l01.o(i.EXTI9_5_IRQHandler) refers to nrf24l01.o(i.ResetRecieveMode) for ResetRecieveMode
    nrf24l01.o(i.EXTI9_5_IRQHandler) refers to stm32f10x_exti.o(i.EXTI_ClearITPendingBit) for EXTI_ClearITPendingBit
    nrf24l01.o(i.EXTI9_5_IRQHandler) refers to cmos.o(.data) for AutoPowerOffCnt
    nrf24l01.o(i.ResetRecieveMode) refers to stm32f10x_exti.o(i.EXTI_ClearITPendingBit) for EXTI_ClearITPendingBit
    nrf24l01.o(i.ResetRecieveMode) refers to nrf24l01.o(i.nRF_ClearStatusRegister) for nRF_ClearStatusRegister
    nrf24l01.o(i.ResetRecieveMode) refers to nrf24l01.o(i.nRF_RecieveMode) for nRF_RecieveMode
    nrf24l01.o(i.SPI_NRF_Init) refers to stm32f10x_rcc.o(i.RCC_APB2PeriphClockCmd) for RCC_APB2PeriphClockCmd
    nrf24l01.o(i.SPI_NRF_Init) refers to stm32f10x_rcc.o(i.RCC_APB1PeriphClockCmd) for RCC_APB1PeriphClockCmd
    nrf24l01.o(i.SPI_NRF_Init) refers to stm32f10x_gpio.o(i.GPIO_Init) for GPIO_Init
    nrf24l01.o(i.SPI_NRF_Init) refers to stm32f10x_spi.o(i.SPI_Init) for SPI_Init
    nrf24l01.o(i.SPI_NRF_Init) refers to stm32f10x_spi.o(i.SPI_Cmd) for SPI_Cmd
    nrf24l01.o(i.SPI_NRF_Init) refers to stm32f10x_spi.o(i.SPI_I2S_ClearFlag) for SPI_I2S_ClearFlag
    nrf24l01.o(i.SendMessage) refers to nrf24l01.o(i.nRF_ClearStatusRegister) for nRF_ClearStatusRegister
    nrf24l01.o(i.SendMessage) refers to nrf24l01.o(i.nRF_RegisterWriteByte) for nRF_RegisterWriteByte
    nrf24l01.o(i.SendMessage) refers to nrf24l01.o(i.nRF_TxSendData) for nRF_TxSendData
    nrf24l01.o(i.SendMessage) refers to stm32f10x_exti.o(i.EXTI_ClearITPendingBit) for EXTI_ClearITPendingBit
    nrf24l01.o(i.nRF_Check) refers to nrf24l01.o(i.nRF_RegisterWriteBuffer) for nRF_RegisterWriteBuffer
    nrf24l01.o(i.nRF_Check) refers to nrf24l01.o(i.nRF_RegisterReadBuffer) for nRF_RegisterReadBuffer
    nrf24l01.o(i.nRF_ClearStatusRegister) refers to nrf24l01.o(i.nRF_RegisterWriteByte) for nRF_RegisterWriteByte
    nrf24l01.o(i.nRF_EXTIcfg) refers to stm32f10x_exti.o(i.EXTI_ClearITPendingBit) for EXTI_ClearITPendingBit
    nrf24l01.o(i.nRF_EXTIcfg) refers to stm32f10x_gpio.o(i.GPIO_EXTILineConfig) for GPIO_EXTILineConfig
    nrf24l01.o(i.nRF_EXTIcfg) refers to stm32f10x_exti.o(i.EXTI_Init) for EXTI_Init
    nrf24l01.o(i.nRF_EXTIcfg) refers to misc.o(i.NVIC_Init) for NVIC_Init
    nrf24l01.o(i.nRF_FlushRxBuffer) refers to nrf24l01.o(i.nRF_SPIStart) for nRF_SPIStart
    nrf24l01.o(i.nRF_FlushRxBuffer) refers to nrf24l01.o(i.nRF_SPIRW) for nRF_SPIRW
    nrf24l01.o(i.nRF_FlushRxBuffer) refers to nrf24l01.o(i.nRF_SPIStop) for nRF_SPIStop
    nrf24l01.o(i.nRF_FlushTxBuffer) refers to nrf24l01.o(i.nRF_SPIStart) for nRF_SPIStart
    nrf24l01.o(i.nRF_FlushTxBuffer) refers to nrf24l01.o(i.nRF_SPIRW) for nRF_SPIRW
    nrf24l01.o(i.nRF_FlushTxBuffer) refers to nrf24l01.o(i.nRF_SPIStop) for nRF_SPIStop
    nrf24l01.o(i.nRF_GetIRQStatus) refers to stm32f10x_gpio.o(i.GPIO_ReadInputDataBit) for GPIO_ReadInputDataBit
    nrf24l01.o(i.nRF_GetStatusRegister) refers to nrf24l01.o(i.nRF_SPIStart) for nRF_SPIStart
    nrf24l01.o(i.nRF_GetStatusRegister) refers to nrf24l01.o(i.nRF_SPIRW) for nRF_SPIRW
    nrf24l01.o(i.nRF_GetStatusRegister) refers to nrf24l01.o(i.nRF_SPIStop) for nRF_SPIStop
    nrf24l01.o(i.nRF_Init) refers to nrf24l01.o(i.SPI_NRF_Init) for SPI_NRF_Init
    nrf24l01.o(i.nRF_Init) refers to nrf24l01.o(i.nRF_PowerDown) for nRF_PowerDown
    nrf24l01.o(i.nRF_Init) refers to nrf24l01.o(i.nRF_StandbyMode) for nRF_StandbyMode
    nrf24l01.o(i.nRF_Init) refers to nrf24l01.o(i.nRF_GetStatusRegister) for nRF_GetStatusRegister
    nrf24l01.o(i.nRF_Init) refers to nrf24l01.o(i.nRF_ClearStatusRegister) for nRF_ClearStatusRegister
    nrf24l01.o(i.nRF_InitReg) refers to nrf24l01.o(i.nRF_RegisterWriteBuffer) for nRF_RegisterWriteBuffer
    nrf24l01.o(i.nRF_InitReg) refers to nrf24l01.o(i.nRF_RegisterWriteByte) for nRF_RegisterWriteByte
    nrf24l01.o(i.nRF_InitReg) refers to nrf24l01.o(.data) for R_nRF_Addr
    nrf24l01.o(i.nRF_PowerDown) refers to nrf24l01.o(i.nRF_RegisterWriteByte) for nRF_RegisterWriteByte
    nrf24l01.o(i.nRF_PowerDown) refers to cmos.o(i.mDelay) for mDelay
    nrf24l01.o(i.nRF_ReadRxBuffer) refers to nrf24l01.o(i.nRF_SPIStart) for nRF_SPIStart
    nrf24l01.o(i.nRF_ReadRxBuffer) refers to nrf24l01.o(i.nRF_SPIRW) for nRF_SPIRW
    nrf24l01.o(i.nRF_ReadRxBuffer) refers to nrf24l01.o(i.nRF_SPIStop) for nRF_SPIStop
    nrf24l01.o(i.nRF_RecieveMode) refers to nrf24l01.o(i.nRF_FlushRxBuffer) for nRF_FlushRxBuffer
    nrf24l01.o(i.nRF_RecieveMode) refers to nrf24l01.o(i.nRF_RegisterWriteByte) for nRF_RegisterWriteByte
    nrf24l01.o(i.nRF_RegisterReadBuffer) refers to nrf24l01.o(i.nRF_SPIStart) for nRF_SPIStart
    nrf24l01.o(i.nRF_RegisterReadBuffer) refers to nrf24l01.o(i.nRF_SPIRW) for nRF_SPIRW
    nrf24l01.o(i.nRF_RegisterReadBuffer) refers to nrf24l01.o(i.nRF_SPIStop) for nRF_SPIStop
    nrf24l01.o(i.nRF_RegisterReadByte) refers to nrf24l01.o(i.nRF_SPIStart) for nRF_SPIStart
    nrf24l01.o(i.nRF_RegisterReadByte) refers to nrf24l01.o(i.nRF_SPIRW) for nRF_SPIRW
    nrf24l01.o(i.nRF_RegisterReadByte) refers to nrf24l01.o(i.nRF_SPIStop) for nRF_SPIStop
    nrf24l01.o(i.nRF_RegisterWriteBuffer) refers to nrf24l01.o(i.nRF_SPIStart) for nRF_SPIStart
    nrf24l01.o(i.nRF_RegisterWriteBuffer) refers to nrf24l01.o(i.nRF_SPIRW) for nRF_SPIRW
    nrf24l01.o(i.nRF_RegisterWriteBuffer) refers to nrf24l01.o(i.nRF_SPIStop) for nRF_SPIStop
    nrf24l01.o(i.nRF_RegisterWriteByte) refers to nrf24l01.o(i.nRF_SPIStart) for nRF_SPIStart
    nrf24l01.o(i.nRF_RegisterWriteByte) refers to nrf24l01.o(i.nRF_SPIRW) for nRF_SPIRW
    nrf24l01.o(i.nRF_RegisterWriteByte) refers to nrf24l01.o(i.nRF_SPIStop) for nRF_SPIStop
    nrf24l01.o(i.nRF_RxGetData) refers to nrf24l01.o(i.nRF_ReadRxBuffer) for nRF_ReadRxBuffer
    nrf24l01.o(i.nRF_SPIRW) refers to stm32f10x_spi.o(i.SPI_I2S_GetFlagStatus) for SPI_I2S_GetFlagStatus
    nrf24l01.o(i.nRF_SPIRW) refers to stm32f10x_spi.o(i.SPI_I2S_SendData) for SPI_I2S_SendData
    nrf24l01.o(i.nRF_SPIRW) refers to stm32f10x_spi.o(i.SPI_I2S_ReceiveData) for SPI_I2S_ReceiveData
    nrf24l01.o(i.nRF_TxSendData) refers to nrf24l01.o(i.nRF_FlushTxBuffer) for nRF_FlushTxBuffer
    nrf24l01.o(i.nRF_TxSendData) refers to nrf24l01.o(i.nRF_FlushRxBuffer) for nRF_FlushRxBuffer
    nrf24l01.o(i.nRF_TxSendData) refers to nrf24l01.o(i.nRF_WriteTxBuffer) for nRF_WriteTxBuffer
    nrf24l01.o(i.nRF_TxSetRP1P2) refers to nrf24l01.o(i.nRF_RegisterWriteBuffer) for nRF_RegisterWriteBuffer
    nrf24l01.o(i.nRF_TxSetRP1P2) refers to nrf24l01.o(i.nRF_RegisterWriteByte) for nRF_RegisterWriteByte
    nrf24l01.o(i.nRF_TxSetRP1P2) refers to nrf24l01.o(i.nRF_RecieveMode) for nRF_RecieveMode
    nrf24l01.o(i.nRF_TxSetRP1P2) refers to nrf24l01.o(.data) for R_EN_AA
    nrf24l01.o(i.nRF_TxSetTXRP0) refers to nrf24l01.o(i.nRF_RegisterWriteBuffer) for nRF_RegisterWriteBuffer
    nrf24l01.o(i.nRF_TxSetTXRP0) refers to nrf24l01.o(i.nRF_RecieveMode) for nRF_RecieveMode
    nrf24l01.o(i.nRF_WriteTxBuffer) refers to nrf24l01.o(i.nRF_SPIStart) for nRF_SPIStart
    nrf24l01.o(i.nRF_WriteTxBuffer) refers to nrf24l01.o(i.nRF_SPIRW) for nRF_SPIRW
    nrf24l01.o(i.nRF_WriteTxBuffer) refers to nrf24l01.o(i.nRF_SPIStop) for nRF_SPIStop
    lcd.o(i.DB_Pin_In) refers to stm32f10x_gpio.o(i.GPIO_Init) for GPIO_Init
    lcd.o(i.DB_Pin_Out) refers to stm32f10x_gpio.o(i.GPIO_Init) for GPIO_Init
    lcd.o(i.Lcd_GPIOInit) refers to stm32f10x_rcc.o(i.RCC_APB2PeriphClockCmd) for RCC_APB2PeriphClockCmd
    lcd.o(i.Lcd_GPIOInit) refers to stm32f10x_gpio.o(i.GPIO_Init) for GPIO_Init
    lcd.o(i.Lcd_Init) refers to lcd.o(i.Lcd_GPIOInit) for Lcd_GPIOInit
    lcd.o(i.Lcd_Init) refers to lcd.o(i.Lcd_Reset) for Lcd_Reset
    lcd.o(i.Lcd_Init) refers to lcd.o(i.Lcd_Write_Cmd) for Lcd_Write_Cmd
    lcd.o(i.Lcd_Init) refers to lcd.o(i.Lcd_Write_Param) for Lcd_Write_Param
    lcd.o(i.Lcd_Off) refers to lcd.o(.data) for lcdstatu
    lcd.o(i.Lcd_On) refers to lcd.o(i.Lcd_Init) for Lcd_Init
    lcd.o(i.Lcd_On) refers to lcd.o(i.Lcd_Write_Cmd) for Lcd_Write_Cmd
    lcd.o(i.Lcd_On) refers to lcd.o(.data) for lcdstatu
    lcd.o(i.Lcd_Read_Buf) refers to lcd.o(i.DB_Write) for DB_Write
    lcd.o(i.Lcd_Read_Buf) refers to lcd.o(i.DB_Pin_In) for DB_Pin_In
    lcd.o(i.Lcd_Read_Buf) refers to lcd.o(i.DB_Read) for DB_Read
    lcd.o(i.Lcd_Read_Buf) refers to lcd.o(i.DB_Pin_Out) for DB_Pin_Out
    lcd.o(i.Lcd_RefreshScreen) refers to lcd.o(i.Lcd_Set_Window) for Lcd_Set_Window
    lcd.o(i.Lcd_RefreshScreen) refers to lcd.o(i.Lcd_Write_Buf) for Lcd_Write_Buf
    lcd.o(i.Lcd_Reset) refers to cmos.o(i.mDelay) for mDelay
    lcd.o(i.Lcd_Rotate_90) refers to lcd.o(i.Lcd_Write_Cmd) for Lcd_Write_Cmd
    lcd.o(i.Lcd_Rotate_90) refers to lcd.o(i.Lcd_Write_Param) for Lcd_Write_Param
    lcd.o(i.Lcd_Rotate_Default) refers to lcd.o(i.Lcd_Write_Cmd) for Lcd_Write_Cmd
    lcd.o(i.Lcd_Rotate_Default) refers to lcd.o(i.Lcd_Write_Param) for Lcd_Write_Param
    lcd.o(i.Lcd_Set_Window) refers to lcd.o(i.Lcd_Write_Cmd) for Lcd_Write_Cmd
    lcd.o(i.Lcd_Set_Window) refers to lcd.o(i.Lcd_Write_Param) for Lcd_Write_Param
    lcd.o(i.Lcd_Write_Buf) refers to lcd.o(i.DB_Write) for DB_Write
    lcd.o(i.Lcd_Write_Cmd) refers to lcd.o(i.DB_Write) for DB_Write
    lcd.o(i.Lcd_Write_Param) refers to lcd.o(i.DB_Write) for DB_Write
    lcd.o(i.Lcd_Write_Params) refers to lcd.o(i.DB_Write) for DB_Write
    lcd.o(i.Lcd_initOn) refers to lcd.o(i.Lcd_Write_Cmd) for Lcd_Write_Cmd
    lcd.o(i.Lcd_initOn) refers to lcd.o(.data) for lcdstatu
    flash.o(i.F_DB_In) refers to stm32f10x_gpio.o(i.GPIO_Init) for GPIO_Init
    flash.o(i.F_DB_Out) refers to stm32f10x_gpio.o(i.GPIO_Init) for GPIO_Init
    flash.o(i.F_Enter_QPI_Mode) refers to flash.o(i.F_WR_Start) for F_WR_Start
    flash.o(i.F_Enter_QPI_Mode) refers to flash.o(i.F_SPI_W) for F_SPI_W
    flash.o(i.F_Enter_QPI_Mode) refers to flash.o(i.F_SPI_R) for F_SPI_R
    flash.o(i.F_Enter_QPI_Mode) refers to flash.o(i.F_WR_Stop) for F_WR_Stop
    flash.o(i.F_GPIO_QPI_Mode) refers to stm32f10x_rcc.o(i.RCC_APB2PeriphClockCmd) for RCC_APB2PeriphClockCmd
    flash.o(i.F_GPIO_QPI_Mode) refers to stm32f10x_gpio.o(i.GPIO_Init) for GPIO_Init
    flash.o(i.F_GPIO_SPI_Mode) refers to stm32f10x_rcc.o(i.RCC_APB2PeriphClockCmd) for RCC_APB2PeriphClockCmd
    flash.o(i.F_GPIO_SPI_Mode) refers to stm32f10x_gpio.o(i.GPIO_Init) for GPIO_Init
    flash.o(i.F_QPI_Check_JEDEC_ID) refers to flash.o(i.F_WR_Start) for F_WR_Start
    flash.o(i.F_QPI_Check_JEDEC_ID) refers to flash.o(i.F_QPI_W) for F_QPI_W
    flash.o(i.F_QPI_Check_JEDEC_ID) refers to flash.o(i.F_DB_In) for F_DB_In
    flash.o(i.F_QPI_Check_JEDEC_ID) refers to flash.o(i.F_QPI_R) for F_QPI_R
    flash.o(i.F_QPI_Check_JEDEC_ID) refers to flash.o(i.F_DB_Out) for F_DB_Out
    flash.o(i.F_QPI_Check_JEDEC_ID) refers to flash.o(i.F_WR_Stop) for F_WR_Stop
    flash.o(i.F_SPI_Check_JEDEC_ID) refers to flash.o(i.F_WR_Start) for F_WR_Start
    flash.o(i.F_SPI_Check_JEDEC_ID) refers to flash.o(i.F_SPI_W) for F_SPI_W
    flash.o(i.F_SPI_Check_JEDEC_ID) refers to flash.o(i.F_SPI_R) for F_SPI_R
    flash.o(i.F_SPI_Check_JEDEC_ID) refers to flash.o(i.F_WR_Stop) for F_WR_Stop
    flash.o(i.Flash_32K_Erase) refers to flash.o(i.Flash_Write_Enable) for Flash_Write_Enable
    flash.o(i.Flash_32K_Erase) refers to flash.o(i.F_WR_Start) for F_WR_Start
    flash.o(i.Flash_32K_Erase) refers to flash.o(i.F_QPI_W) for F_QPI_W
    flash.o(i.Flash_32K_Erase) refers to flash.o(i.F_WR_Stop) for F_WR_Stop
    flash.o(i.Flash_32K_Erase) refers to flash.o(i.Flash_Wait_Done) for Flash_Wait_Done
    flash.o(i.Flash_4K_Erase) refers to flash.o(i.Flash_Write_Enable) for Flash_Write_Enable
    flash.o(i.Flash_4K_Erase) refers to flash.o(i.F_WR_Start) for F_WR_Start
    flash.o(i.Flash_4K_Erase) refers to flash.o(i.F_QPI_W) for F_QPI_W
    flash.o(i.Flash_4K_Erase) refers to flash.o(i.F_WR_Stop) for F_WR_Stop
    flash.o(i.Flash_4K_Erase) refers to flash.o(i.Flash_Wait_Done) for Flash_Wait_Done
    flash.o(i.Flash_4K_Erase_Start) refers to flash.o(i.Flash_Write_Enable) for Flash_Write_Enable
    flash.o(i.Flash_4K_Erase_Start) refers to flash.o(i.F_WR_Start) for F_WR_Start
    flash.o(i.Flash_4K_Erase_Start) refers to flash.o(i.F_QPI_W) for F_QPI_W
    flash.o(i.Flash_4K_Erase_Start) refers to flash.o(i.F_WR_Stop) for F_WR_Stop
    flash.o(i.Flash_64K_Erase) refers to flash.o(i.Flash_Write_Enable) for Flash_Write_Enable
    flash.o(i.Flash_64K_Erase) refers to flash.o(i.F_WR_Start) for F_WR_Start
    flash.o(i.Flash_64K_Erase) refers to flash.o(i.F_QPI_W) for F_QPI_W
    flash.o(i.Flash_64K_Erase) refers to flash.o(i.F_WR_Stop) for F_WR_Stop
    flash.o(i.Flash_64K_Erase) refers to flash.o(i.Flash_Wait_Done) for Flash_Wait_Done
    flash.o(i.Flash_Chip_Erase) refers to flash.o(i.Flash_Write_Enable) for Flash_Write_Enable
    flash.o(i.Flash_Chip_Erase) refers to flash.o(i.F_WR_Start) for F_WR_Start
    flash.o(i.Flash_Chip_Erase) refers to flash.o(i.F_QPI_W) for F_QPI_W
    flash.o(i.Flash_Chip_Erase) refers to flash.o(i.F_WR_Stop) for F_WR_Stop
    flash.o(i.Flash_Chip_Erase) refers to flash.o(i.Flash_Wait_Done) for Flash_Wait_Done
    flash.o(i.Flash_Init) refers to flash.o(i.F_GPIO_SPI_Mode) for F_GPIO_SPI_Mode
    flash.o(i.Flash_Init) refers to flash.o(i.F_SPI_Check_JEDEC_ID) for F_SPI_Check_JEDEC_ID
    flash.o(i.Flash_Init) refers to flash.o(i.F_Enter_QPI_Mode) for F_Enter_QPI_Mode
    flash.o(i.Flash_Init) refers to flash.o(i.F_GPIO_QPI_Mode) for F_GPIO_QPI_Mode
    flash.o(i.Flash_Init) refers to flash.o(i.F_QPI_Check_JEDEC_ID) for F_QPI_Check_JEDEC_ID
    flash.o(i.Flash_Init) refers to display.o(i.Display_Initialization) for Display_Initialization
    flash.o(i.Flash_Init) refers to display.o(i.Console_Open) for Console_Open
    flash.o(i.Flash_Init) refers to flash.o(i.Flash_Read_Status_Reg) for Flash_Read_Status_Reg
    flash.o(i.Flash_Init) refers to flash.o(i.Flash_Write_Status_Reg) for Flash_Write_Status_Reg
    flash.o(i.Flash_IsBusy) refers to flash.o(i.F_WR_Start) for F_WR_Start
    flash.o(i.Flash_IsBusy) refers to flash.o(i.F_QPI_W) for F_QPI_W
    flash.o(i.Flash_IsBusy) refers to flash.o(i.F_DB_In) for F_DB_In
    flash.o(i.Flash_IsBusy) refers to flash.o(i.F_QPI_R) for F_QPI_R
    flash.o(i.Flash_IsBusy) refers to flash.o(i.F_DB_Out) for F_DB_Out
    flash.o(i.Flash_IsBusy) refers to flash.o(i.F_WR_Stop) for F_WR_Stop
    flash.o(i.Flash_Read) refers to flash.o(i.Flash_Wait_Done) for Flash_Wait_Done
    flash.o(i.Flash_Read) refers to flash.o(i.Flash_Set_Read_Param) for Flash_Set_Read_Param
    flash.o(i.Flash_Read) refers to flash.o(i.F_WR_Start) for F_WR_Start
    flash.o(i.Flash_Read) refers to flash.o(i.F_QPI_W) for F_QPI_W
    flash.o(i.Flash_Read) refers to flash.o(i.F_DB_In) for F_DB_In
    flash.o(i.Flash_Read) refers to flash.o(i.F_QPI_R) for F_QPI_R
    flash.o(i.Flash_Read) refers to flash.o(i.F_DB_Out) for F_DB_Out
    flash.o(i.Flash_Read) refers to flash.o(i.F_WR_Stop) for F_WR_Stop
    flash.o(i.Flash_Read_Status_Reg) refers to flash.o(i.F_WR_Start) for F_WR_Start
    flash.o(i.Flash_Read_Status_Reg) refers to flash.o(i.F_QPI_W) for F_QPI_W
    flash.o(i.Flash_Read_Status_Reg) refers to flash.o(i.F_DB_In) for F_DB_In
    flash.o(i.Flash_Read_Status_Reg) refers to flash.o(i.F_QPI_R) for F_QPI_R
    flash.o(i.Flash_Read_Status_Reg) refers to flash.o(i.F_DB_Out) for F_DB_Out
    flash.o(i.Flash_Read_Status_Reg) refers to flash.o(i.F_WR_Stop) for F_WR_Stop
    flash.o(i.Flash_Set_Read_Param) refers to flash.o(i.F_WR_Start) for F_WR_Start
    flash.o(i.Flash_Set_Read_Param) refers to flash.o(i.F_QPI_W) for F_QPI_W
    flash.o(i.Flash_Set_Read_Param) refers to flash.o(i.F_WR_Stop) for F_WR_Stop
    flash.o(i.Flash_Wait_Done) refers to flash.o(i.F_WR_Start) for F_WR_Start
    flash.o(i.Flash_Wait_Done) refers to flash.o(i.F_QPI_W) for F_QPI_W
    flash.o(i.Flash_Wait_Done) refers to flash.o(i.F_DB_In) for F_DB_In
    flash.o(i.Flash_Wait_Done) refers to flash.o(i.F_QPI_R) for F_QPI_R
    flash.o(i.Flash_Wait_Done) refers to flash.o(i.F_DB_Out) for F_DB_Out
    flash.o(i.Flash_Wait_Done) refers to flash.o(i.F_WR_Stop) for F_WR_Stop
    flash.o(i.Flash_Write) refers to flash.o(i.Flash_Read) for Flash_Read
    flash.o(i.Flash_Write) refers to flash.o(i.Flash_Write_Page) for Flash_Write_Page
    flash.o(i.Flash_Write_Enable) refers to flash.o(i.F_WR_Start) for F_WR_Start
    flash.o(i.Flash_Write_Enable) refers to flash.o(i.F_QPI_W) for F_QPI_W
    flash.o(i.Flash_Write_Enable) refers to flash.o(i.F_WR_Stop) for F_WR_Stop
    flash.o(i.Flash_Write_Page) refers to flash.o(i.Flash_Wait_Done) for Flash_Wait_Done
    flash.o(i.Flash_Write_Page) refers to flash.o(i.Flash_Write_Enable) for Flash_Write_Enable
    flash.o(i.Flash_Write_Page) refers to flash.o(i.F_WR_Start) for F_WR_Start
    flash.o(i.Flash_Write_Page) refers to flash.o(i.F_QPI_W) for F_QPI_W
    flash.o(i.Flash_Write_Page) refers to flash.o(i.F_WR_Stop) for F_WR_Stop
    flash.o(i.Flash_Write_Status_Reg) refers to flash.o(i.Flash_Write_Enable) for Flash_Write_Enable
    flash.o(i.Flash_Write_Status_Reg) refers to flash.o(i.F_WR_Start) for F_WR_Start
    flash.o(i.Flash_Write_Status_Reg) refers to flash.o(i.F_QPI_W) for F_QPI_W
    flash.o(i.Flash_Write_Status_Reg) refers to flash.o(i.F_WR_Stop) for F_WR_Stop
    flash.o(i.Flash_Write_Status_Reg) refers to flash.o(i.Flash_Wait_Done) for Flash_Wait_Done
    motor.o(i.GEA_MotorCtrl) refers to motor.o(i.Motor_Off) for Motor_Off
    motor.o(i.GEA_MotorCtrl) refers to motor.o(i.Motor_On) for Motor_On
    motor.o(i.GEA_MotorCtrl) refers to motor.o(.data) for motor_timer
    motor.o(i.Motor_Action) refers to motor.o(i.Motor_On) for Motor_On
    motor.o(i.Motor_Action) refers to motor.o(.data) for motor_timer
    motor.o(i.Motor_Check) refers to motor.o(i.Motor_Off) for Motor_Off
    motor.o(i.Motor_Check) refers to motor.o(.data) for motor_timer
    motor.o(i.Motor_Init) refers to stm32f10x_rcc.o(i.RCC_APB2PeriphClockCmd) for RCC_APB2PeriphClockCmd
    motor.o(i.Motor_Init) refers to stm32f10x_gpio.o(i.GPIO_Init) for GPIO_Init
    motor.o(i.Motor_Init) refers to motor.o(i.Motor_Off) for Motor_Off
    motor.o(i.Motor_Off) refers to motor.o(.data) for MotorFlag
    motor.o(i.Motor_On) refers to motor.o(.data) for MotorFlag
    motor.o(i.getMotorFlag) refers to motor.o(.data) for MotorFlag
    mma7660fc.o(i.EXTI0_IRQHandler) refers to stm32f10x_exti.o(i.EXTI_ClearITPendingBit) for EXTI_ClearITPendingBit
    mma7660fc.o(i.EXTI0_IRQHandler) refers to mma7660fc.o(i.Read_Reg_Queue) for Read_Reg_Queue
    mma7660fc.o(i.EXTI0_IRQHandler) refers to mma7660fc.o(.data) for _x
    mma7660fc.o(i.EXTI0_IRQHandler) refers to mma7660fc.o(.bss) for _x_buf
    mma7660fc.o(i.I2C_R) refers to mma7660fc.o(i.SDA_In) for SDA_In
    mma7660fc.o(i.I2C_R) refers to mma7660fc.o(i.Delay) for Delay
    mma7660fc.o(i.I2C_R) refers to stm32f10x_gpio.o(i.GPIO_ReadInputDataBit) for GPIO_ReadInputDataBit
    mma7660fc.o(i.I2C_R) refers to mma7660fc.o(i.SDA_Out) for SDA_Out
    mma7660fc.o(i.I2C_Start) refers to mma7660fc.o(i.Delay) for Delay
    mma7660fc.o(i.I2C_Stop) refers to mma7660fc.o(i.Delay) for Delay
    mma7660fc.o(i.I2C_W) refers to mma7660fc.o(i.Delay) for Delay
    mma7660fc.o(i.I2C_W) refers to mma7660fc.o(i.SDA_In) for SDA_In
    mma7660fc.o(i.I2C_W) refers to stm32f10x_gpio.o(i.GPIO_ReadInputDataBit) for GPIO_ReadInputDataBit
    mma7660fc.o(i.I2C_W) refers to mma7660fc.o(i.SDA_Out) for SDA_Out
    mma7660fc.o(i.MMA7660FC_ClearIntFlag) refers to mma7660fc.o(i.Read_Reg) for Read_Reg
    mma7660fc.o(i.MMA7660FC_GPIO_Init) refers to stm32f10x_rcc.o(i.RCC_APB2PeriphClockCmd) for RCC_APB2PeriphClockCmd
    mma7660fc.o(i.MMA7660FC_GPIO_Init) refers to stm32f10x_gpio.o(i.GPIO_Init) for GPIO_Init
    mma7660fc.o(i.MMA7660FC_GetShakeState) refers to mma7660fc.o(i.GetShakeRate) for GetShakeRate
    mma7660fc.o(i.MMA7660FC_GetShakeState) refers to cmos.o(i.CMOS_GetTimer) for CMOS_GetTimer
    mma7660fc.o(i.MMA7660FC_GetShakeState) refers to mma7660fc.o(.bss) for _x_buf
    mma7660fc.o(i.MMA7660FC_INT_Init) refers to stm32f10x_gpio.o(i.GPIO_EXTILineConfig) for GPIO_EXTILineConfig
    mma7660fc.o(i.MMA7660FC_INT_Init) refers to stm32f10x_exti.o(i.EXTI_Init) for EXTI_Init
    mma7660fc.o(i.MMA7660FC_INT_Init) refers to misc.o(i.NVIC_Init) for NVIC_Init
    mma7660fc.o(i.MMA7660FC_Init) refers to mma7660fc.o(i.MMA7660FC_GPIO_Init) for MMA7660FC_GPIO_Init
    mma7660fc.o(i.MMA7660FC_Init) refers to mma7660fc.o(i.Write_Reg) for Write_Reg
    mma7660fc.o(i.MMA7660FC_Init) refers to mma7660fc.o(i.Read_Reg) for Read_Reg
    mma7660fc.o(i.MMA7660FC_Init) refers to display.o(i.Display_Initialization) for Display_Initialization
    mma7660fc.o(i.MMA7660FC_Init) refers to display.o(i.PutString) for PutString
    mma7660fc.o(i.MMA7660FC_Init) refers to display.o(i.RefreshScreen) for RefreshScreen
    mma7660fc.o(i.MMA7660FC_Init) refers to cmos.o(i.mDelay) for mDelay
    mma7660fc.o(i.MMA7660FC_Init) refers to mma7660fc.o(i.MMA7660FC_INT_Init) for MMA7660FC_INT_Init
    mma7660fc.o(i.MMA7660FC_Init) refers to mma7660fc.o(.data) for _index
    mma7660fc.o(i.MMA7660FC_IsRun) refers to mma7660fc.o(i.Read_Reg) for Read_Reg
    mma7660fc.o(i.MMA7660FC_IsSleep) refers to mma7660fc.o(i.Read_Reg) for Read_Reg
    mma7660fc.o(i.MMA7660FC_Standby) refers to mma7660fc.o(i.Write_Reg) for Write_Reg
    mma7660fc.o(i.MMA7660FC_Standby) refers to mma7660fc.o(i.Read_Reg) for Read_Reg
    mma7660fc.o(i.MMA7660FC_Standy) refers to mma7660fc.o(i.Write_Reg) for Write_Reg
    mma7660fc.o(i.MMA7660FC_Standy) refers to mma7660fc.o(i.Read_Reg) for Read_Reg
    mma7660fc.o(i.MMA7660FC_To_Acceleration) refers to mma7660fc.o(.data) for _g_value
    mma7660fc.o(i.MMA7660FC_To_Angle) refers to mma7660fc.o(.data) for _angle
    mma7660fc.o(i.MMA7660FC_XYZ) refers to mma7660fc.o(.data) for _xyz_state
    mma7660fc.o(i.Read_Reg) refers to mma7660fc.o(i.I2C_Start) for I2C_Start
    mma7660fc.o(i.Read_Reg) refers to mma7660fc.o(i.I2C_W) for I2C_W
    mma7660fc.o(i.Read_Reg) refers to mma7660fc.o(i.I2C_R) for I2C_R
    mma7660fc.o(i.Read_Reg) refers to mma7660fc.o(i.I2C_Stop) for I2C_Stop
    mma7660fc.o(i.Read_Reg_Queue) refers to mma7660fc.o(i.I2C_Start) for I2C_Start
    mma7660fc.o(i.Read_Reg_Queue) refers to mma7660fc.o(i.I2C_W) for I2C_W
    mma7660fc.o(i.Read_Reg_Queue) refers to mma7660fc.o(i.I2C_R) for I2C_R
    mma7660fc.o(i.Read_Reg_Queue) refers to mma7660fc.o(i.I2C_Stop) for I2C_Stop
    mma7660fc.o(i.SDA_In) refers to stm32f10x_gpio.o(i.GPIO_Init) for GPIO_Init
    mma7660fc.o(i.SDA_Out) refers to stm32f10x_gpio.o(i.GPIO_Init) for GPIO_Init
    mma7660fc.o(i.Write_Reg) refers to mma7660fc.o(i.I2C_Start) for I2C_Start
    mma7660fc.o(i.Write_Reg) refers to mma7660fc.o(i.I2C_W) for I2C_W
    mma7660fc.o(i.Write_Reg) refers to mma7660fc.o(i.I2C_Stop) for I2C_Stop
    mma7660fc.o(i.Write_Reg_Queue) refers to mma7660fc.o(i.I2C_Start) for I2C_Start
    mma7660fc.o(i.Write_Reg_Queue) refers to mma7660fc.o(i.I2C_W) for I2C_W
    mma7660fc.o(i.Write_Reg_Queue) refers to mma7660fc.o(i.I2C_Stop) for I2C_Stop
    mma7660fc.o(i.poweron) refers to stm32f10x_rcc.o(i.RCC_APB2PeriphClockCmd) for RCC_APB2PeriphClockCmd
    mma7660fc.o(i.poweron) refers to stm32f10x_gpio.o(i.GPIO_Init) for GPIO_Init
    sentence.o(i.GEA_GetSpeechStatus) refers to sentence.o(.data) for st_stStatus
    sentence.o(i.GEA_LoopSpeech) refers to audio.o(i.StopBGM) for StopBGM
    sentence.o(i.GEA_LoopSpeech) refers to audio.o(i.playbgm) for playbgm
    sentence.o(i.GEA_PlaySpeech) refers to sentence.o(i.GEA_StopSpeech) for GEA_StopSpeech
    sentence.o(i.GEA_PlaySpeech) refers to sentence.o(i.sentencePlay) for sentencePlay
    sentence.o(i.GEA_PlaySpeech) refers to sentence.o(.data) for st_stStatus
    sentence.o(i.GEA_PlaySpeech) refers to sentence.o(.bss) for st_listBuf
    sentence.o(i.GEA_SetSpeechList) refers to sentence.o(i.GEA_StopSpeech) for GEA_StopSpeech
    sentence.o(i.GEA_SetSpeechList) refers to sentence.o(.bss) for st_varBuf
    sentence.o(i.GEA_StopSpeech) refers to audio.o(i.StopVoice) for StopVoice
    sentence.o(i.GEA_StopSpeech) refers to sentence.o(.data) for st_stStatus
    sentence.o(i.sentencePlay) refers to sentence.o(i.stOpenSentence) for stOpenSentence
    sentence.o(i.sentencePlay) refers to sentence.o(i.stCheck) for stCheck
    sentence.o(i.sentencePlay) refers to sentence.o(.data) for st_voiceIndex
    sentence.o(i.sndInit) refers to audio.o(i.audio_Init) for audio_Init
    sentence.o(i.sndInit) refers to sentence.o(.bss) for st_voiceidBuf
    sentence.o(i.sndInit) refers to sentence.o(.data) for st_voiceIndex
    sentence.o(i.stCheck) refers to audio.o(i.audio_checkmsg) for audio_checkmsg
    sentence.o(i.stCheck) refers to audio.o(i.IsVoiceBusy) for IsVoiceBusy
    sentence.o(i.stCheck) refers to sentence.o(i.stFillBuf) for stFillBuf
    sentence.o(i.stCheck) refers to sentence.o(i.sentencePlay) for sentencePlay
    sentence.o(i.stCheck) refers to audio.o(i.PlayVoice) for PlayVoice
    sentence.o(i.stCheck) refers to sentence.o(i.stOpenSentence) for stOpenSentence
    sentence.o(i.stCheck) refers to sentence.o(.data) for st_stStatus
    sentence.o(i.stCheck) refers to sentence.o(.bss) for st_sentenceBuf
    sentence.o(i.stFillBuf) refers to file.o(i.GetResourceAddr) for GetResourceAddr
    sentence.o(i.stFillBuf) refers to file.o(i.GetResourceData) for GetResourceData
    sentence.o(i.stFillBuf) refers to sentence.o(.data) for st_voiceIndex
    sentence.o(i.stFillBuf) refers to sentence.o(.bss) for st_sentenceBuf
    sentence.o(i.stOpenSentence) refers to file.o(i.GetResourceAddr) for GetResourceAddr
    sentence.o(i.stOpenSentence) refers to file.o(i.GetResourceData) for GetResourceData
    sentence.o(i.stOpenSentence) refers to sentence.o(.data) for playplindex
    sentence.o(i.stOpenSentence) refers to sentence.o(.bss) for st_sentenceBuf
    battery.o(i.Bat_GetAD) refers to stm32f10x_adc.o(i.ADC_GetConversionValue) for ADC_GetConversionValue
    battery.o(i.Bat_GetChargeState) refers to stm32f10x_gpio.o(i.GPIO_ReadInputDataBit) for GPIO_ReadInputDataBit
    battery.o(i.Bat_GetLevel) refers to battery.o(i.Bat_GetAD) for Bat_GetAD
    battery.o(i.Bat_GetStandbyState) refers to stm32f10x_gpio.o(i.GPIO_ReadInputDataBit) for GPIO_ReadInputDataBit
    battery.o(i.Bat_GetVoltage) refers to stm32f10x_adc.o(i.ADC_GetConversionValue) for ADC_GetConversionValue
    battery.o(i.Bat_GetVoltage) refers to ffltui.o(.text) for __aeabi_ui2f
    battery.o(i.Bat_GetVoltage) refers to f2d.o(.text) for __aeabi_f2d
    battery.o(i.Bat_GetVoltage) refers to dmul.o(.text) for __aeabi_dmul
    battery.o(i.Bat_GetVoltage) refers to ddiv.o(.text) for __aeabi_ddiv
    battery.o(i.Bat_GetVoltage) refers to d2f.o(.text) for __aeabi_d2f
    battery.o(i.Bat_GetVoltagePercentage) refers to battery.o(i.Bat_GetVoltage) for Bat_GetVoltage
    battery.o(i.Bat_GetVoltagePercentage) refers to f2d.o(.text) for __aeabi_f2d
    battery.o(i.Bat_GetVoltagePercentage) refers to dmul.o(.text) for __aeabi_dmul
    battery.o(i.Bat_GetVoltagePercentage) refers to ddiv.o(.text) for __aeabi_ddiv
    battery.o(i.Bat_GetVoltagePercentage) refers to d2f.o(.text) for __aeabi_d2f
    battery.o(i.Bat_GetVoltagePercentage) refers to battery.o(i.Bat_IsChargeDone) for Bat_IsChargeDone
    battery.o(i.Bat_GetVoltagePercentage) refers to cdcmple.o(.text) for __aeabi_cdcmple
    battery.o(i.Bat_GetVoltagePercentage) refers to cdrcmple.o(.text) for __aeabi_cdrcmple
    battery.o(i.Bat_GetVoltagePercentage) refers to fmul.o(.text) for __aeabi_fmul
    battery.o(i.Bat_GetVoltagePercentage) refers to ffixi.o(.text) for __aeabi_f2iz
    battery.o(i.Bat_GetVoltagePercentage) refers to fflti.o(.text) for __aeabi_i2f
    battery.o(i.Bat_GetVoltagePercentage) refers to fdiv.o(.text) for __aeabi_fdiv
    battery.o(i.Bat_GetVoltagePercentage) refers to dadd.o(.text) for __aeabi_dsub
    battery.o(i.Bat_GetVoltagePercentage) refers to dfixui.o(.text) for __aeabi_d2uiz
    battery.o(i.Bat_Init) refers to stm32f10x_rcc.o(i.RCC_APB2PeriphClockCmd) for RCC_APB2PeriphClockCmd
    battery.o(i.Bat_Init) refers to stm32f10x_gpio.o(i.GPIO_Init) for GPIO_Init
    battery.o(i.Bat_Init) refers to stm32f10x_adc.o(i.ADC_Init) for ADC_Init
    battery.o(i.Bat_Init) refers to stm32f10x_rcc.o(i.RCC_ADCCLKConfig) for RCC_ADCCLKConfig
    battery.o(i.Bat_Init) refers to stm32f10x_adc.o(i.ADC_RegularChannelConfig) for ADC_RegularChannelConfig
    battery.o(i.Bat_Init) refers to stm32f10x_adc.o(i.ADC_Cmd) for ADC_Cmd
    battery.o(i.Bat_Init) refers to stm32f10x_adc.o(i.ADC_ResetCalibration) for ADC_ResetCalibration
    battery.o(i.Bat_Init) refers to stm32f10x_adc.o(i.ADC_GetResetCalibrationStatus) for ADC_GetResetCalibrationStatus
    battery.o(i.Bat_Init) refers to stm32f10x_adc.o(i.ADC_StartCalibration) for ADC_StartCalibration
    battery.o(i.Bat_Init) refers to stm32f10x_adc.o(i.ADC_GetCalibrationStatus) for ADC_GetCalibrationStatus
    battery.o(i.Bat_Init) refers to stm32f10x_adc.o(i.ADC_SoftwareStartConvCmd) for ADC_SoftwareStartConvCmd
    battery.o(i.Bat_IsChargForSlave) refers to cmos.o(i.CMOS_GetTimer) for CMOS_GetTimer
    battery.o(i.Bat_IsChargForSlave) refers to cmos.o(i.CMOS_GetTimerCount) for CMOS_GetTimerCount
    battery.o(i.Bat_IsChargForSlave) refers to battery.o(i.Bat_IsCharging) for Bat_IsCharging
    battery.o(i.Bat_IsChargForSlave) refers to xiaomu.o(.data) for powerisfull
    battery.o(i.Bat_IsChargForSlave) refers to battery.o(.data) for cache
    battery.o(i.Bat_IsChargeDone) refers to battery.o(i.Bat_GetChargeState) for Bat_GetChargeState
    battery.o(i.Bat_IsChargeDone) refers to battery.o(i.Bat_GetStandbyState) for Bat_GetStandbyState
    battery.o(i.Bat_IsCharging) refers to battery.o(i.Bat_GetChargeState) for Bat_GetChargeState
    battery.o(i.Bat_IsCharging) refers to battery.o(i.Bat_GetStandbyState) for Bat_GetStandbyState
    singlewireslave.o(i.EXTI15_10_IRQHandler) refers to stm32f10x_exti.o(i.EXTI_GetITStatus) for EXTI_GetITStatus
    singlewireslave.o(i.EXTI15_10_IRQHandler) refers to cmos.o(i.CMOS_GetTimer) for CMOS_GetTimer
    singlewireslave.o(i.EXTI15_10_IRQHandler) refers to stm32f10x_exti.o(i.EXTI_ClearITPendingBit) for EXTI_ClearITPendingBit
    singlewireslave.o(i.EXTI15_10_IRQHandler) refers to singlewireslave.o(i.set_mode) for set_mode
    singlewireslave.o(i.EXTI15_10_IRQHandler) refers to stm32f10x_gpio.o(i.GPIO_SetBits) for GPIO_SetBits
    singlewireslave.o(i.EXTI15_10_IRQHandler) refers to stm32f10x_gpio.o(i.GPIO_ResetBits) for GPIO_ResetBits
    singlewireslave.o(i.EXTI15_10_IRQHandler) refers to cmos.o(i.uDelay) for uDelay
    singlewireslave.o(i.EXTI15_10_IRQHandler) refers to singlewireslave.o(i.fifo_write_byte) for fifo_write_byte
    singlewireslave.o(i.EXTI15_10_IRQHandler) refers to singlewireslave.o(i.fifo_read_byte) for fifo_read_byte
    singlewireslave.o(i.EXTI15_10_IRQHandler) refers to singlewireslave.o(.data) for _last_time
    singlewireslave.o(i.EXTI15_10_IRQHandler) refers to singlewireslave.o(.bss) for _recv
    singlewireslave.o(i.SWS_BytesToRead) refers to singlewireslave.o(.bss) for _recv
    singlewireslave.o(i.SWS_BytesToSend) refers to singlewireslave.o(.bss) for _send
    singlewireslave.o(i.SWS_Init) refers to stm32f10x_rcc.o(i.RCC_APB2PeriphClockCmd) for RCC_APB2PeriphClockCmd
    singlewireslave.o(i.SWS_Init) refers to stm32f10x_gpio.o(i.GPIO_PinRemapConfig) for GPIO_PinRemapConfig
    singlewireslave.o(i.SWS_Init) refers to singlewireslave.o(i.set_mode) for set_mode
    singlewireslave.o(i.SWS_Init) refers to stm32f10x_gpio.o(i.GPIO_EXTILineConfig) for GPIO_EXTILineConfig
    singlewireslave.o(i.SWS_Init) refers to stm32f10x_exti.o(i.EXTI_Init) for EXTI_Init
    singlewireslave.o(i.SWS_Init) refers to misc.o(i.NVIC_Init) for NVIC_Init
    singlewireslave.o(i.SWS_Init) refers to singlewireslave.o(i.fifo_set_buf) for fifo_set_buf
    singlewireslave.o(i.SWS_Init) refers to singlewireslave.o(i.fifo_reset) for fifo_reset
    singlewireslave.o(i.SWS_Init) refers to cmos.o(i.CMOS_GetTimer) for CMOS_GetTimer
    singlewireslave.o(i.SWS_Init) refers to singlewireslave.o(.data) for _send_buf
    singlewireslave.o(i.SWS_Init) refers to singlewireslave.o(.bss) for _send
    singlewireslave.o(i.SWS_ReadBytes) refers to singlewireslave.o(i.fifo_read_buf) for fifo_read_buf
    singlewireslave.o(i.SWS_ReadBytes) refers to singlewireslave.o(.bss) for _recv
    singlewireslave.o(i.SWS_RecvBufSize) refers to singlewireslave.o(.bss) for _recv
    singlewireslave.o(i.SWS_SendBufSize) refers to singlewireslave.o(.bss) for _send
    singlewireslave.o(i.SWS_SendBytes) refers to singlewireslave.o(i.fifo_write_buf) for fifo_write_buf
    singlewireslave.o(i.SWS_SendBytes) refers to singlewireslave.o(i.fifo_read_byte) for fifo_read_byte
    singlewireslave.o(i.SWS_SendBytes) refers to singlewireslave.o(.bss) for _send
    singlewireslave.o(i.SWS_SendBytes) refers to singlewireslave.o(.data) for _send_byte
    singlewireslave.o(i.SWS_SetRecvBuf) refers to singlewireslave.o(i.fifo_set_buf) for fifo_set_buf
    singlewireslave.o(i.SWS_SetRecvBuf) refers to singlewireslave.o(i.fifo_reset) for fifo_reset
    singlewireslave.o(i.SWS_SetRecvBuf) refers to singlewireslave.o(.bss) for _recv_buf
    singlewireslave.o(i.SWS_SetSendBuf) refers to singlewireslave.o(i.fifo_set_buf) for fifo_set_buf
    singlewireslave.o(i.SWS_SetSendBuf) refers to singlewireslave.o(i.fifo_reset) for fifo_reset
    singlewireslave.o(i.SWS_SetSendBuf) refers to singlewireslave.o(.data) for _send_buf
    singlewireslave.o(i.SWS_SetSendBuf) refers to singlewireslave.o(.bss) for _send
    singlewireslave.o(i.SWS_getBytes) refers to singlewireslave.o(.bss) for _recv
    singlewireslave.o(i.fifo_read_buf) refers to singlewireslave.o(i.fifo_read_byte) for fifo_read_byte
    singlewireslave.o(i.fifo_write_buf) refers to singlewireslave.o(i.fifo_write_byte) for fifo_write_byte
    singlewireslave.o(i.set_mode) refers to stm32f10x_gpio.o(i.GPIO_Init) for GPIO_Init
    oneline.o(i.ONELINE_Init) refers to misc.o(i.NVIC_Init) for NVIC_Init
    oneline.o(i.ONELINE_Init) refers to stm32f10x_rcc.o(i.RCC_APB2PeriphClockCmd) for RCC_APB2PeriphClockCmd
    oneline.o(i.ONELINE_Init) refers to stm32f10x_gpio.o(i.GPIO_PinRemapConfig) for GPIO_PinRemapConfig
    oneline.o(i.ONELINE_Init) refers to stm32f10x_gpio.o(i.GPIO_Init) for GPIO_Init
    oneline.o(i.getLine) refers to stm32f10x_gpio.o(i.GPIO_ReadInputDataBit) for GPIO_ReadInputDataBit
    oneline.o(i.setLine) refers to stm32f10x_gpio.o(i.GPIO_WriteBit) for GPIO_WriteBit
    send.o(i.GEA_GetNearStatus) refers to cmos.o(i.CMOS_GetTimer) for CMOS_GetTimer
    send.o(i.GEA_GetNearStatus) refers to cmlib.o(i.ccopy) for ccopy
    send.o(i.GEA_GetNearStatus) refers to send.o(.bss) for nearsensor
    send.o(i.NearSensorInit) refers to config.o(i.readSlaverID) for readSlaverID
    send.o(i.NearSensorInit) refers to cmos.o(i.CMOS_GetTimer) for CMOS_GetTimer
    send.o(i.NearSensorInit) refers to send.o(.bss) for nearsensor
    send.o(i.send_Init) refers to stm32f10x_rcc.o(i.RCC_APB2PeriphClockCmd) for RCC_APB2PeriphClockCmd
    send.o(i.send_Init) refers to stm32f10x_gpio.o(i.GPIO_Init) for GPIO_Init
    send.o(i.send_Init) refers to send.o(i.NearSensorInit) for NearSensorInit
    send.o(i.sendservice) refers to send.o(.data) for mscnt
    gd62429.o(i.GD62429_GPIO_Init) refers to stm32f10x_rcc.o(i.RCC_APB2PeriphClockCmd) for RCC_APB2PeriphClockCmd
    gd62429.o(i.GD62429_GPIO_Init) refers to stm32f10x_gpio.o(i.GPIO_Init) for GPIO_Init
    gd62429.o(i.GD62429_GPIO_Init) refers to gd62429.o(i.GD_I2C_W) for GD_I2C_W
    gd62429.o(i.GD_I2C_W) refers to gd62429.o(i.i2c_Delay) for i2c_Delay
    gd62429.o(i.gd_I2C_W) refers to gd62429.o(i.i2c_Delay) for i2c_Delay
    stm32f10x_gpio.o(i.GPIO_AFIODeInit) refers to stm32f10x_rcc.o(i.RCC_APB2PeriphResetCmd) for RCC_APB2PeriphResetCmd
    stm32f10x_gpio.o(i.GPIO_DeInit) refers to stm32f10x_rcc.o(i.RCC_APB2PeriphResetCmd) for RCC_APB2PeriphResetCmd
    stm32f10x_spi.o(i.I2S_Init) refers to stm32f10x_rcc.o(i.RCC_GetClocksFreq) for RCC_GetClocksFreq
    stm32f10x_spi.o(i.SPI_I2S_DeInit) refers to stm32f10x_rcc.o(i.RCC_APB2PeriphResetCmd) for RCC_APB2PeriphResetCmd
    stm32f10x_spi.o(i.SPI_I2S_DeInit) refers to stm32f10x_rcc.o(i.RCC_APB1PeriphResetCmd) for RCC_APB1PeriphResetCmd
    stm32f10x_rcc.o(i.RCC_GetClocksFreq) refers to stm32f10x_rcc.o(.data) for APBAHBPrescTable
    stm32f10x_rcc.o(i.RCC_WaitForHSEStartUp) refers to stm32f10x_rcc.o(i.RCC_GetFlagStatus) for RCC_GetFlagStatus
    stm32f10x_tim.o(i.TIM_DeInit) refers to stm32f10x_rcc.o(i.RCC_APB2PeriphResetCmd) for RCC_APB2PeriphResetCmd
    stm32f10x_tim.o(i.TIM_DeInit) refers to stm32f10x_rcc.o(i.RCC_APB1PeriphResetCmd) for RCC_APB1PeriphResetCmd
    stm32f10x_tim.o(i.TIM_ETRClockMode1Config) refers to stm32f10x_tim.o(i.TIM_ETRConfig) for TIM_ETRConfig
    stm32f10x_tim.o(i.TIM_ETRClockMode2Config) refers to stm32f10x_tim.o(i.TIM_ETRConfig) for TIM_ETRConfig
    stm32f10x_tim.o(i.TIM_ICInit) refers to stm32f10x_tim.o(i.TI1_Config) for TI1_Config
    stm32f10x_tim.o(i.TIM_ICInit) refers to stm32f10x_tim.o(i.TIM_SetIC1Prescaler) for TIM_SetIC1Prescaler
    stm32f10x_tim.o(i.TIM_ICInit) refers to stm32f10x_tim.o(i.TI2_Config) for TI2_Config
    stm32f10x_tim.o(i.TIM_ICInit) refers to stm32f10x_tim.o(i.TIM_SetIC2Prescaler) for TIM_SetIC2Prescaler
    stm32f10x_tim.o(i.TIM_ICInit) refers to stm32f10x_tim.o(i.TI3_Config) for TI3_Config
    stm32f10x_tim.o(i.TIM_ICInit) refers to stm32f10x_tim.o(i.TIM_SetIC3Prescaler) for TIM_SetIC3Prescaler
    stm32f10x_tim.o(i.TIM_ICInit) refers to stm32f10x_tim.o(i.TI4_Config) for TI4_Config
    stm32f10x_tim.o(i.TIM_ICInit) refers to stm32f10x_tim.o(i.TIM_SetIC4Prescaler) for TIM_SetIC4Prescaler
    stm32f10x_tim.o(i.TIM_ITRxExternalClockConfig) refers to stm32f10x_tim.o(i.TIM_SelectInputTrigger) for TIM_SelectInputTrigger
    stm32f10x_tim.o(i.TIM_PWMIConfig) refers to stm32f10x_tim.o(i.TI1_Config) for TI1_Config
    stm32f10x_tim.o(i.TIM_PWMIConfig) refers to stm32f10x_tim.o(i.TIM_SetIC1Prescaler) for TIM_SetIC1Prescaler
    stm32f10x_tim.o(i.TIM_PWMIConfig) refers to stm32f10x_tim.o(i.TI2_Config) for TI2_Config
    stm32f10x_tim.o(i.TIM_PWMIConfig) refers to stm32f10x_tim.o(i.TIM_SetIC2Prescaler) for TIM_SetIC2Prescaler
    stm32f10x_tim.o(i.TIM_TIxExternalClockConfig) refers to stm32f10x_tim.o(i.TI2_Config) for TI2_Config
    stm32f10x_tim.o(i.TIM_TIxExternalClockConfig) refers to stm32f10x_tim.o(i.TI1_Config) for TI1_Config
    stm32f10x_tim.o(i.TIM_TIxExternalClockConfig) refers to stm32f10x_tim.o(i.TIM_SelectInputTrigger) for TIM_SelectInputTrigger
    stm32f10x_flash.o(i.FLASH_EnableWriteProtection) refers to stm32f10x_flash.o(i.FLASH_WaitForLastOperation) for FLASH_WaitForLastOperation
    stm32f10x_flash.o(i.FLASH_EraseAllBank1Pages) refers to stm32f10x_flash.o(i.FLASH_WaitForLastBank1Operation) for FLASH_WaitForLastBank1Operation
    stm32f10x_flash.o(i.FLASH_EraseAllPages) refers to stm32f10x_flash.o(i.FLASH_WaitForLastOperation) for FLASH_WaitForLastOperation
    stm32f10x_flash.o(i.FLASH_EraseOptionBytes) refers to stm32f10x_flash.o(i.FLASH_GetReadOutProtectionStatus) for FLASH_GetReadOutProtectionStatus
    stm32f10x_flash.o(i.FLASH_EraseOptionBytes) refers to stm32f10x_flash.o(i.FLASH_WaitForLastOperation) for FLASH_WaitForLastOperation
    stm32f10x_flash.o(i.FLASH_ErasePage) refers to stm32f10x_flash.o(i.FLASH_WaitForLastOperation) for FLASH_WaitForLastOperation
    stm32f10x_flash.o(i.FLASH_ProgramHalfWord) refers to stm32f10x_flash.o(i.FLASH_WaitForLastOperation) for FLASH_WaitForLastOperation
    stm32f10x_flash.o(i.FLASH_ProgramOptionByteData) refers to stm32f10x_flash.o(i.FLASH_WaitForLastOperation) for FLASH_WaitForLastOperation
    stm32f10x_flash.o(i.FLASH_ProgramWord) refers to stm32f10x_flash.o(i.FLASH_WaitForLastOperation) for FLASH_WaitForLastOperation
    stm32f10x_flash.o(i.FLASH_ReadOutProtection) refers to stm32f10x_flash.o(i.FLASH_WaitForLastOperation) for FLASH_WaitForLastOperation
    stm32f10x_flash.o(i.FLASH_UserOptionByteConfig) refers to stm32f10x_flash.o(i.FLASH_WaitForLastOperation) for FLASH_WaitForLastOperation
    stm32f10x_flash.o(i.FLASH_WaitForLastBank1Operation) refers to stm32f10x_flash.o(i.FLASH_GetBank1Status) for FLASH_GetBank1Status
    stm32f10x_flash.o(i.FLASH_WaitForLastOperation) refers to stm32f10x_flash.o(i.FLASH_GetBank1Status) for FLASH_GetBank1Status
    stm32f10x_dac.o(i.DAC_DeInit) refers to stm32f10x_rcc.o(i.RCC_APB1PeriphResetCmd) for RCC_APB1PeriphResetCmd
    stm32f10x_usart.o(i.USART_DeInit) refers to stm32f10x_rcc.o(i.RCC_APB2PeriphResetCmd) for RCC_APB2PeriphResetCmd
    stm32f10x_usart.o(i.USART_DeInit) refers to stm32f10x_rcc.o(i.RCC_APB1PeriphResetCmd) for RCC_APB1PeriphResetCmd
    stm32f10x_usart.o(i.USART_Init) refers to stm32f10x_rcc.o(i.RCC_GetClocksFreq) for RCC_GetClocksFreq
    stm32f10x_adc.o(i.ADC_DeInit) refers to stm32f10x_rcc.o(i.RCC_APB2PeriphResetCmd) for RCC_APB2PeriphResetCmd
    stm32f10x_pwr.o(i.PWR_DeInit) refers to stm32f10x_rcc.o(i.RCC_APB1PeriphResetCmd) for RCC_APB1PeriphResetCmd
    system_stm32f10x.o(i.SetSysClock) refers to system_stm32f10x.o(i.SetSysClockTo72) for SetSysClockTo72
    system_stm32f10x.o(i.SystemCoreClockUpdate) refers to system_stm32f10x.o(.data) for SystemCoreClock
    system_stm32f10x.o(i.SystemInit) refers to system_stm32f10x.o(i.SetSysClock) for SetSysClock
    cmlib.o(i.FIFO_GetPopIndex) refers to cmlib.o(i.FIFO_Reset) for FIFO_Reset
    cmlib.o(i.FIFO_Init) refers to cmlib.o(i.FIFO_Reset) for FIFO_Reset
    cmlib.o(i.FIFO_ReadData) refers to cmlib.o(i.FIFO_Reset) for FIFO_Reset
    cmlib.o(i.GetCeiling) refers to ffixi.o(.text) for __aeabi_f2iz
    cmlib.o(i.GetCeiling) refers to fflti.o(.text) for __aeabi_i2f
    cmlib.o(i.GetFloor) refers to ffixi.o(.text) for __aeabi_f2iz
    cmlib.o(i.GetFloor) refers to fflti.o(.text) for __aeabi_i2f
    cmos.o(i.CMOS_GetTimer) refers to cmos.o(.data) for r_OS_TimerCount
    cmos.o(i.CMOS_GetTimerCount) refers to cmos.o(.data) for r_OS_TimerCount
    cmos.o(i.CMOS_InitReg) refers to cmos.o(.data) for r_OS_TimerCount
    cmos.o(i.CMOS_Initialization) refers to cmos.o(i.CMOS_SetSystemClock) for CMOS_SetSystemClock
    cmos.o(i.CMOS_Initialization) refers to misc.o(i.NVIC_PriorityGroupConfig) for NVIC_PriorityGroupConfig
    cmos.o(i.CMOS_Initialization) refers to cmos.o(i.CMOS_InitReg) for CMOS_InitReg
    cmos.o(i.CMOS_Initialization) refers to cmos.o(i.CMOS_Timer2Config) for CMOS_Timer2Config
    cmos.o(i.CMOS_SetSystemClock) refers to stm32f10x_rcc.o(i.RCC_DeInit) for RCC_DeInit
    cmos.o(i.CMOS_SetSystemClock) refers to stm32f10x_rcc.o(i.RCC_HSEConfig) for RCC_HSEConfig
    cmos.o(i.CMOS_SetSystemClock) refers to stm32f10x_rcc.o(i.RCC_WaitForHSEStartUp) for RCC_WaitForHSEStartUp
    cmos.o(i.CMOS_SetSystemClock) refers to stm32f10x_flash.o(i.FLASH_PrefetchBufferCmd) for FLASH_PrefetchBufferCmd
    cmos.o(i.CMOS_SetSystemClock) refers to stm32f10x_flash.o(i.FLASH_SetLatency) for FLASH_SetLatency
    cmos.o(i.CMOS_SetSystemClock) refers to stm32f10x_rcc.o(i.RCC_HCLKConfig) for RCC_HCLKConfig
    cmos.o(i.CMOS_SetSystemClock) refers to stm32f10x_rcc.o(i.RCC_PCLK2Config) for RCC_PCLK2Config
    cmos.o(i.CMOS_SetSystemClock) refers to stm32f10x_rcc.o(i.RCC_PCLK1Config) for RCC_PCLK1Config
    cmos.o(i.CMOS_SetSystemClock) refers to stm32f10x_rcc.o(i.RCC_PLLConfig) for RCC_PLLConfig
    cmos.o(i.CMOS_SetSystemClock) refers to stm32f10x_rcc.o(i.RCC_PLLCmd) for RCC_PLLCmd
    cmos.o(i.CMOS_SetSystemClock) refers to stm32f10x_rcc.o(i.RCC_GetFlagStatus) for RCC_GetFlagStatus
    cmos.o(i.CMOS_SetSystemClock) refers to stm32f10x_rcc.o(i.RCC_SYSCLKConfig) for RCC_SYSCLKConfig
    cmos.o(i.CMOS_SetSystemClock) refers to stm32f10x_rcc.o(i.RCC_GetSYSCLKSource) for RCC_GetSYSCLKSource
    cmos.o(i.CMOS_Timer2Config) refers to misc.o(i.NVIC_Init) for NVIC_Init
    cmos.o(i.CMOS_Timer2Config) refers to stm32f10x_rcc.o(i.RCC_APB1PeriphClockCmd) for RCC_APB1PeriphClockCmd
    cmos.o(i.CMOS_Timer2Config) refers to stm32f10x_tim.o(i.TIM_TimeBaseInit) for TIM_TimeBaseInit
    cmos.o(i.CMOS_Timer2Config) refers to stm32f10x_tim.o(i.TIM_ClearFlag) for TIM_ClearFlag
    cmos.o(i.CMOS_Timer2Config) refers to stm32f10x_tim.o(i.TIM_ITConfig) for TIM_ITConfig
    cmos.o(i.CMOS_Timer2Config) refers to stm32f10x_tim.o(i.TIM_Cmd) for TIM_Cmd
    cmos.o(i.CMOS_TimerProcess) refers to cmos.o(.data) for r_OS_TimerCount
    cmos.o(i.CheckAutoPowerOff) refers to cmos.o(i.CMOS_GetTimer) for CMOS_GetTimer
    cmos.o(i.CheckAutoPowerOff) refers to cmos.o(.data) for AutoPowerOffCnt
    cmos.o(i.ClrAutoPowerOff) refers to cmos.o(.data) for r_OS_TimerCount
    cmos.o(i.GEA_SetTimCnt) refers to cmos.o(i.ClrAutoPowerOff) for ClrAutoPowerOff
    cmos.o(i.GEA_SetTimCnt) refers to cmos.o(.data) for r_OS_TimerCount
    cmos.o(i.mDelay) refers to cmos.o(.data) for r_OS_TimerCount
    audio.o(i.IsVoiceBusy) refers to audio.o(.data) for voice
    audio.o(i.PlayVoice) refers to file.o(i.GetResourceItemAddr) for GetResourceItemAddr
    audio.o(i.PlayVoice) refers to file.o(i.GetResourceData) for GetResourceData
    audio.o(i.PlayVoice) refers to audio.o(i.audio_checkmsg) for audio_checkmsg
    audio.o(i.PlayVoice) refers to pcm.o(i.pcm_open) for pcm_open
    audio.o(i.PlayVoice) refers to audio.o(.data) for voice
    audio.o(i.StopBGM) refers to audio.o(.data) for bgm
    audio.o(i.StopVoice) refers to audio.o(.data) for voice
    audio.o(i._PlayBGM) refers to file.o(i.GetResourceItemAddr) for GetResourceItemAddr
    audio.o(i._PlayBGM) refers to file.o(i.GetResourceData) for GetResourceData
    audio.o(i._PlayBGM) refers to audio.o(i.audio_checkmsg) for audio_checkmsg
    audio.o(i._PlayBGM) refers to pcm.o(i.pcm_open) for pcm_open
    audio.o(i._PlayBGM) refers to audio.o(.data) for bgm
    audio.o(i.audio_Init) refers to pcm.o(i.pcm_Init) for pcm_Init
    audio.o(i.audio_Init) refers to audio.o(.data) for voice
    audio.o(i.audio_checkmsg) refers to chanel.o(i.chanel_fillbuf) for chanel_fillbuf
    audio.o(i.audio_checkmsg) refers to mix.o(i.mixchanel) for mixchanel
    audio.o(i.audio_checkmsg) refers to pcm.o(i.pcm_fillbuf) for pcm_fillbuf
    audio.o(i.audio_checkmsg) refers to pcm.o(i.pcm_checkbuf) for pcm_checkbuf
    audio.o(i.audio_checkmsg) refers to audio.o(.data) for voice
    audio.o(i.audio_checkmsg) refers to audio.o(.bss) for mixer
    audio.o(i.playbgm) refers to file.o(i.GetResourceAddr) for GetResourceAddr
    audio.o(i.playbgm) refers to file.o(i.GetResourceData) for GetResourceData
    audio.o(i.playbgm) refers to audio.o(i._PlayBGM) for _PlayBGM
    chanel.o(i.chanel_fillbuf) refers to file.o(i.GetResourceData) for GetResourceData
    chanel.o(i.chanel_fillbuf) refers to decode.o(i.decode) for decode
    decode.o(i.decode) refers to adpcm.o(i.adpcm_decoder) for adpcm_decoder
    pcm.o(i.TIM3_IRQHandler) refers to dflti.o(.text) for __aeabi_i2d
    pcm.o(i.TIM3_IRQHandler) refers to dmul.o(.text) for __aeabi_dmul
    pcm.o(i.TIM3_IRQHandler) refers to dfixui.o(.text) for __aeabi_d2uiz
    pcm.o(i.TIM3_IRQHandler) refers to pcm.o(i.pcm_close) for pcm_close
    pcm.o(i.TIM3_IRQHandler) refers to pcm.o(.data) for pcm_bufp
    pcm.o(i.pcm_Init) refers to pcm.o(i.pcm_Init_Shutdown_Pin) for pcm_Init_Shutdown_Pin
    pcm.o(i.pcm_Init) refers to stm32f10x_rcc.o(i.RCC_APB2PeriphClockCmd) for RCC_APB2PeriphClockCmd
    pcm.o(i.pcm_Init) refers to stm32f10x_rcc.o(i.RCC_APB1PeriphClockCmd) for RCC_APB1PeriphClockCmd
    pcm.o(i.pcm_Init) refers to stm32f10x_gpio.o(i.GPIO_Init) for GPIO_Init
    pcm.o(i.pcm_Init) refers to stm32f10x_tim.o(i.TIM_DeInit) for TIM_DeInit
    pcm.o(i.pcm_Init) refers to stm32f10x_tim.o(i.TIM_TimeBaseInit) for TIM_TimeBaseInit
    pcm.o(i.pcm_Init) refers to stm32f10x_tim.o(i.TIM_ClearFlag) for TIM_ClearFlag
    pcm.o(i.pcm_Init) refers to misc.o(i.NVIC_Init) for NVIC_Init
    pcm.o(i.pcm_Init) refers to stm32f10x_tim.o(i.TIM_ITConfig) for TIM_ITConfig
    pcm.o(i.pcm_Init) refers to pcm.o(.data) for pcm_buf1
    pcm.o(i.pcm_Init_Shutdown_Pin) refers to stm32f10x_rcc.o(i.RCC_APB2PeriphClockCmd) for RCC_APB2PeriphClockCmd
    pcm.o(i.pcm_Init_Shutdown_Pin) refers to stm32f10x_gpio.o(i.GPIO_Init) for GPIO_Init
    pcm.o(i.pcm_checkbuf) refers to pcm.o(.data) for pcm_buf1
    pcm.o(i.pcm_close) refers to pcm.o(.data) for pcm_isopen
    pcm.o(i.pcm_fillbuf) refers to pcm.o(.data) for pcm_buf1
    pcm.o(i.pcm_getstatus) refers to pcm.o(.data) for pcm_isopen
    pcm.o(i.pcm_open) refers to pcm.o(.data) for pcm_isopen
    adpcm.o(i.adpcm_coder) refers to adpcm.o(.data) for stepsizeTable
    adpcm.o(i.adpcm_decoder) refers to adpcm.o(.data) for stepsizeTable
    entry.o(.ARM.Collect$$$$00000000) refers (Special) to entry10a.o(.ARM.Collect$$$$0000000D) for __rt_final_cpp
    entry.o(.ARM.Collect$$$$00000000) refers (Special) to entry11a.o(.ARM.Collect$$$$0000000F) for __rt_final_exit
    entry.o(.ARM.Collect$$$$00000000) refers (Special) to entry7b.o(.ARM.Collect$$$$00000008) for _main_clock
    entry.o(.ARM.Collect$$$$00000000) refers (Special) to entry8b.o(.ARM.Collect$$$$0000000A) for _main_cpp_init
    entry.o(.ARM.Collect$$$$00000000) refers (Special) to entry9a.o(.ARM.Collect$$$$0000000B) for _main_init
    entry.o(.ARM.Collect$$$$00000000) refers (Special) to entry5.o(.ARM.Collect$$$$00000004) for _main_scatterload
    entry.o(.ARM.Collect$$$$00000000) refers (Special) to entry2.o(.ARM.Collect$$$$00000001) for _main_stk
    fmul.o(.text) refers (Special) to iusefp.o(.text) for __I$use$fp
    fdiv.o(.text) refers (Special) to iusefp.o(.text) for __I$use$fp
    fdiv.o(.text) refers to fepilogue.o(.text) for _float_round
    dadd.o(.text) refers (Special) to iusefp.o(.text) for __I$use$fp
    dadd.o(.text) refers to llshl.o(.text) for __aeabi_llsl
    dadd.o(.text) refers to llsshr.o(.text) for __aeabi_lasr
    dadd.o(.text) refers to depilogue.o(.text) for _double_epilogue
    dmul.o(.text) refers (Special) to iusefp.o(.text) for __I$use$fp
    dmul.o(.text) refers to depilogue.o(.text) for _double_epilogue
    ddiv.o(.text) refers (Special) to iusefp.o(.text) for __I$use$fp
    ddiv.o(.text) refers to depilogue.o(.text) for _double_round
    fflti.o(.text) refers (Special) to iusefp.o(.text) for __I$use$fp
    fflti.o(.text) refers to fepilogue.o(.text) for _float_epilogue
    ffltui.o(.text) refers (Special) to iusefp.o(.text) for __I$use$fp
    ffltui.o(.text) refers to fepilogue.o(.text) for _float_epilogue
    dflti.o(.text) refers (Special) to iusefp.o(.text) for __I$use$fp
    dflti.o(.text) refers to depilogue.o(.text) for _double_epilogue
    ffixi.o(.text) refers (Special) to iusefp.o(.text) for __I$use$fp
    dfixui.o(.text) refers (Special) to iusefp.o(.text) for __I$use$fp
    dfixui.o(.text) refers to llushr.o(.text) for __aeabi_llsr
    f2d.o(.text) refers (Special) to iusefp.o(.text) for __I$use$fp
    cdcmple.o(.text) refers (Special) to iusefp.o(.text) for __I$use$fp
    cdrcmple.o(.text) refers (Special) to iusefp.o(.text) for __I$use$fp
    d2f.o(.text) refers (Special) to iusefp.o(.text) for __I$use$fp
    d2f.o(.text) refers to fepilogue.o(.text) for _float_round
    entry2.o(.ARM.Collect$$$$00000001) refers to entry2.o(.ARM.Collect$$$$00002712) for __lit__00000000
    entry2.o(.ARM.Collect$$$$00002712) refers to startup_stm32f10x_hd.o(STACK) for __initial_sp
    entry2.o(__vectab_stack_and_reset_area) refers to startup_stm32f10x_hd.o(STACK) for __initial_sp
    entry2.o(__vectab_stack_and_reset_area) refers to entry.o(.ARM.Collect$$$$00000000) for __main
    entry5.o(.ARM.Collect$$$$00000004) refers to init.o(.text) for __scatterload
    entry9a.o(.ARM.Collect$$$$0000000B) refers to main.o(i.main) for main
    entry9b.o(.ARM.Collect$$$$0000000C) refers to main.o(i.main) for main
    depilogue.o(.text) refers to llshl.o(.text) for __aeabi_llsl
    depilogue.o(.text) refers to llushr.o(.text) for __aeabi_llsr
    init.o(.text) refers to entry5.o(.ARM.Collect$$$$00000004) for __main_after_scatterload


==============================================================================

Removing Unused input sections from the image.

    Removing startup_stm32f10x_hd.o(HEAP), (1024 bytes).
    Removing hardware.o(i.NearSensorServer), (2 bytes).
    Removing usart.o(i.RS_GetMessage), (24 bytes).
    Removing usart.o(i.RS_RecieveData), (64 bytes).
    Removing usart.o(i.RS_SendBlock), (26 bytes).
    Removing usart.o(i.RS_SendMessage), (48 bytes).
    Removing usart.o(i.RS_SendString), (22 bytes).
    Removing usart.o(i.fputc), (36 bytes).
    Removing usart.o(.bss), (50 bytes).
    Removing display.o(i.Console_Add_Hex), (76 bytes).
    Removing display.o(i.Console_Add_String), (80 bytes).
    Removing display.o(i.Console_Clear), (44 bytes).
    Removing display.o(i.Console_NextLine), (56 bytes).
    Removing display.o(i.Getdisplaybuf), (8 bytes).
    Removing display.o(i.PutGraphBuf), (160 bytes).
    Removing display.o(i.PutNum), (122 bytes).
    Removing file.o(i.File_GetAudioSum), (16 bytes).
    Removing g-sensor.o(i.gSensor_Box_X), (12 bytes).
    Removing g-sensor.o(i.gSensor_Box_X_Acceleration), (20 bytes).
    Removing g-sensor.o(i.gSensor_Box_Y), (12 bytes).
    Removing g-sensor.o(i.gSensor_Box_Y_Acceleration), (20 bytes).
    Removing g-sensor.o(i.gSensor_Box_Z), (12 bytes).
    Removing g-sensor.o(i.gSensor_Box_Z_Acceleration), (20 bytes).
    Removing g-sensor.o(i.gSensor_LastShakeTime), (12 bytes).
    Removing g-sensor.o(i.gSensor_X), (12 bytes).
    Removing g-sensor.o(i.gSensor_X_Acceleration), (20 bytes).
    Removing g-sensor.o(i.gSensor_X_Angle), (20 bytes).
    Removing g-sensor.o(i.gSensor_Y), (12 bytes).
    Removing g-sensor.o(i.gSensor_Y_Acceleration), (20 bytes).
    Removing g-sensor.o(i.gSensor_Y_Angle), (20 bytes).
    Removing g-sensor.o(i.gSensor_Z_Acceleration), (20 bytes).
    Removing g-sensor.o(i.gSensor_Z_Angle), (20 bytes).
    Removing g-sensor.o(i.gSnesor_Z), (12 bytes).
    Removing iap.o(.emb_text), (6 bytes).
    Removing iap.o(i.Iap_CloseFile), (6 bytes).
    Removing iap.o(i.Iap_FileInitialization), (2 bytes).
    Removing iap.o(i.Iap_Jump2Run), (36 bytes).
    Removing iap.o(i.Iap_OpenFile), (6 bytes).
    Removing iap.o(i.Iap_RunApp), (2 bytes).
    Removing iap.o(i.Iap_RunBootLoader), (14 bytes).
    Removing iap.o(i.Iap_UpdateFile), (6 bytes).
    Removing dac.o(i.DAC_Initialization), (8 bytes).
    Removing dac.o(i.DAC_OutPut), (14 bytes).
    Removing dac.o(i.DAC_Reg_Config), (84 bytes).
    Removing nrf24l01.o(i.nRF_GetIRQStatus), (16 bytes).
    Removing nrf24l01.o(i.nRF_RegisterReadByte), (30 bytes).
    Removing nrf24l01.o(i.nRF_RxGetData), (16 bytes).
    Removing lcd.o(i.DB_Pin_In), (36 bytes).
    Removing lcd.o(i.DB_Pin_Out), (36 bytes).
    Removing lcd.o(i.DB_Read), (16 bytes).
    Removing lcd.o(i.Lcd_Read_Buf), (96 bytes).
    Removing lcd.o(i.Lcd_Rotate_90), (16 bytes).
    Removing lcd.o(i.Lcd_Rotate_Default), (16 bytes).
    Removing lcd.o(i.Lcd_Write_Params), (60 bytes).
    Removing flash.o(i.Flash_32K_Erase), (50 bytes).
    Removing flash.o(i.Flash_64K_Erase), (50 bytes).
    Removing flash.o(i.Flash_Chip_Erase), (26 bytes).
    Removing flash.o(i.Flash_IsBusy), (36 bytes).
    Removing motor.o(i.Motor_Action), (32 bytes).
    Removing mma7660fc.o(i.MMA7660FC_ClearIntFlag), (10 bytes).
    Removing mma7660fc.o(i.MMA7660FC_IsRun), (24 bytes).
    Removing mma7660fc.o(i.MMA7660FC_IsSleep), (24 bytes).
    Removing mma7660fc.o(i.MMA7660FC_Standy), (48 bytes).
    Removing mma7660fc.o(i.MMA7660FC_To_Acceleration), (32 bytes).
    Removing mma7660fc.o(i.Write_Reg_Queue), (50 bytes).
    Removing battery.o(i.Bat_GetLevel), (32 bytes).
    Removing battery.o(i.Bat_GetVoltage), (84 bytes).
    Removing battery.o(i.Bat_GetVoltagePercentage), (244 bytes).
    Removing battery.o(i.Bat_IsChargeDone), (26 bytes).
    Removing singlewireslave.o(i.SWS_BytesToSend), (12 bytes).
    Removing singlewireslave.o(i.SWS_RecvBufSize), (12 bytes).
    Removing singlewireslave.o(i.SWS_SendBufSize), (12 bytes).
    Removing singlewireslave.o(i.SWS_SetRecvBuf), (52 bytes).
    Removing singlewireslave.o(i.SWS_SetSendBuf), (52 bytes).
    Removing oneline.o(i.getLine), (20 bytes).
    Removing gd62429.o(i.gd_I2C_W), (48 bytes).
    Removing stm32f10x_gpio.o(i.GPIO_AFIODeInit), (20 bytes).
    Removing stm32f10x_gpio.o(i.GPIO_DeInit), (200 bytes).
    Removing stm32f10x_gpio.o(i.GPIO_ETH_MediaInterfaceConfig), (12 bytes).
    Removing stm32f10x_gpio.o(i.GPIO_EventOutputCmd), (12 bytes).
    Removing stm32f10x_gpio.o(i.GPIO_EventOutputConfig), (32 bytes).
    Removing stm32f10x_gpio.o(i.GPIO_PinLockConfig), (18 bytes).
    Removing stm32f10x_gpio.o(i.GPIO_ReadInputData), (8 bytes).
    Removing stm32f10x_gpio.o(i.GPIO_ReadOutputData), (8 bytes).
    Removing stm32f10x_gpio.o(i.GPIO_ReadOutputDataBit), (18 bytes).
    Removing stm32f10x_gpio.o(i.GPIO_StructInit), (16 bytes).
    Removing stm32f10x_gpio.o(i.GPIO_Write), (4 bytes).
    Removing stm32f10x_spi.o(i.I2S_Cmd), (24 bytes).
    Removing stm32f10x_spi.o(i.I2S_Init), (232 bytes).
    Removing stm32f10x_spi.o(i.I2S_StructInit), (20 bytes).
    Removing stm32f10x_spi.o(i.SPI_BiDirectionalLineConfig), (28 bytes).
    Removing stm32f10x_spi.o(i.SPI_CalculateCRC), (24 bytes).
    Removing stm32f10x_spi.o(i.SPI_DataSizeConfig), (18 bytes).
    Removing stm32f10x_spi.o(i.SPI_GetCRC), (16 bytes).
    Removing stm32f10x_spi.o(i.SPI_GetCRCPolynomial), (6 bytes).
    Removing stm32f10x_spi.o(i.SPI_I2S_ClearITPendingBit), (20 bytes).
    Removing stm32f10x_spi.o(i.SPI_I2S_DMACmd), (18 bytes).
    Removing stm32f10x_spi.o(i.SPI_I2S_DeInit), (88 bytes).
    Removing stm32f10x_spi.o(i.SPI_I2S_GetITStatus), (52 bytes).
    Removing stm32f10x_spi.o(i.SPI_I2S_ITConfig), (32 bytes).
    Removing stm32f10x_spi.o(i.SPI_NSSInternalSoftwareConfig), (30 bytes).
    Removing stm32f10x_spi.o(i.SPI_SSOutputCmd), (24 bytes).
    Removing stm32f10x_spi.o(i.SPI_StructInit), (24 bytes).
    Removing stm32f10x_spi.o(i.SPI_TransmitCRC), (10 bytes).
    Removing stm32f10x_rcc.o(i.RCC_AHBPeriphClockCmd), (32 bytes).
    Removing stm32f10x_rcc.o(i.RCC_AdjustHSICalibrationValue), (24 bytes).
    Removing stm32f10x_rcc.o(i.RCC_BackupResetCmd), (12 bytes).
    Removing stm32f10x_rcc.o(i.RCC_ClearFlag), (20 bytes).
    Removing stm32f10x_rcc.o(i.RCC_ClearITPendingBit), (12 bytes).
    Removing stm32f10x_rcc.o(i.RCC_ClockSecuritySystemCmd), (12 bytes).
    Removing stm32f10x_rcc.o(i.RCC_GetITStatus), (24 bytes).
    Removing stm32f10x_rcc.o(i.RCC_HSICmd), (12 bytes).
    Removing stm32f10x_rcc.o(i.RCC_ITConfig), (32 bytes).
    Removing stm32f10x_rcc.o(i.RCC_LSEConfig), (52 bytes).
    Removing stm32f10x_rcc.o(i.RCC_LSICmd), (12 bytes).
    Removing stm32f10x_rcc.o(i.RCC_MCOConfig), (12 bytes).
    Removing stm32f10x_rcc.o(i.RCC_RTCCLKCmd), (12 bytes).
    Removing stm32f10x_rcc.o(i.RCC_RTCCLKConfig), (16 bytes).
    Removing stm32f10x_rcc.o(i.RCC_USBCLKConfig), (12 bytes).
    Removing misc.o(i.NVIC_SetVectorTable), (20 bytes).
    Removing misc.o(i.NVIC_SystemLPConfig), (32 bytes).
    Removing misc.o(i.SysTick_CLKSourceConfig), (40 bytes).
    Removing stm32f10x_tim.o(i.TI1_Config), (128 bytes).
    Removing stm32f10x_tim.o(i.TI2_Config), (152 bytes).
    Removing stm32f10x_tim.o(i.TI3_Config), (144 bytes).
    Removing stm32f10x_tim.o(i.TI4_Config), (152 bytes).
    Removing stm32f10x_tim.o(i.TIM_ARRPreloadConfig), (24 bytes).
    Removing stm32f10x_tim.o(i.TIM_BDTRConfig), (32 bytes).
    Removing stm32f10x_tim.o(i.TIM_BDTRStructInit), (18 bytes).
    Removing stm32f10x_tim.o(i.TIM_CCPreloadControl), (24 bytes).
    Removing stm32f10x_tim.o(i.TIM_CCxCmd), (30 bytes).
    Removing stm32f10x_tim.o(i.TIM_CCxNCmd), (30 bytes).
    Removing stm32f10x_tim.o(i.TIM_ClearOC1Ref), (18 bytes).
    Removing stm32f10x_tim.o(i.TIM_ClearOC2Ref), (24 bytes).
    Removing stm32f10x_tim.o(i.TIM_ClearOC3Ref), (18 bytes).
    Removing stm32f10x_tim.o(i.TIM_ClearOC4Ref), (24 bytes).
    Removing stm32f10x_tim.o(i.TIM_CounterModeConfig), (18 bytes).
    Removing stm32f10x_tim.o(i.TIM_CtrlPWMOutputs), (30 bytes).
    Removing stm32f10x_tim.o(i.TIM_DMACmd), (18 bytes).
    Removing stm32f10x_tim.o(i.TIM_DMAConfig), (10 bytes).
    Removing stm32f10x_tim.o(i.TIM_ETRClockMode1Config), (54 bytes).
    Removing stm32f10x_tim.o(i.TIM_ETRClockMode2Config), (32 bytes).
    Removing stm32f10x_tim.o(i.TIM_ETRConfig), (28 bytes).
    Removing stm32f10x_tim.o(i.TIM_EncoderInterfaceConfig), (66 bytes).
    Removing stm32f10x_tim.o(i.TIM_ForcedOC1Config), (18 bytes).
    Removing stm32f10x_tim.o(i.TIM_ForcedOC2Config), (26 bytes).
    Removing stm32f10x_tim.o(i.TIM_ForcedOC3Config), (18 bytes).
    Removing stm32f10x_tim.o(i.TIM_ForcedOC4Config), (26 bytes).
    Removing stm32f10x_tim.o(i.TIM_GenerateEvent), (4 bytes).
    Removing stm32f10x_tim.o(i.TIM_GetCapture1), (6 bytes).
    Removing stm32f10x_tim.o(i.TIM_GetCapture2), (6 bytes).
    Removing stm32f10x_tim.o(i.TIM_GetCapture3), (6 bytes).
    Removing stm32f10x_tim.o(i.TIM_GetCapture4), (8 bytes).
    Removing stm32f10x_tim.o(i.TIM_GetCounter), (6 bytes).
    Removing stm32f10x_tim.o(i.TIM_GetFlagStatus), (18 bytes).
    Removing stm32f10x_tim.o(i.TIM_GetPrescaler), (6 bytes).
    Removing stm32f10x_tim.o(i.TIM_ICInit), (172 bytes).
    Removing stm32f10x_tim.o(i.TIM_ICStructInit), (18 bytes).
    Removing stm32f10x_tim.o(i.TIM_ITRxExternalClockConfig), (24 bytes).
    Removing stm32f10x_tim.o(i.TIM_InternalClockConfig), (12 bytes).
    Removing stm32f10x_tim.o(i.TIM_OC1FastConfig), (18 bytes).
    Removing stm32f10x_tim.o(i.TIM_OC1Init), (152 bytes).
    Removing stm32f10x_tim.o(i.TIM_OC1NPolarityConfig), (18 bytes).
    Removing stm32f10x_tim.o(i.TIM_OC1PolarityConfig), (18 bytes).
    Removing stm32f10x_tim.o(i.TIM_OC1PreloadConfig), (18 bytes).
    Removing stm32f10x_tim.o(i.TIM_OC2FastConfig), (26 bytes).
    Removing stm32f10x_tim.o(i.TIM_OC2Init), (164 bytes).
    Removing stm32f10x_tim.o(i.TIM_OC2NPolarityConfig), (26 bytes).
    Removing stm32f10x_tim.o(i.TIM_OC2PolarityConfig), (26 bytes).
    Removing stm32f10x_tim.o(i.TIM_OC2PreloadConfig), (26 bytes).
    Removing stm32f10x_tim.o(i.TIM_OC3FastConfig), (18 bytes).
    Removing stm32f10x_tim.o(i.TIM_OC3Init), (160 bytes).
    Removing stm32f10x_tim.o(i.TIM_OC3NPolarityConfig), (26 bytes).
    Removing stm32f10x_tim.o(i.TIM_OC3PolarityConfig), (26 bytes).
    Removing stm32f10x_tim.o(i.TIM_OC3PreloadConfig), (18 bytes).
    Removing stm32f10x_tim.o(i.TIM_OC4FastConfig), (26 bytes).
    Removing stm32f10x_tim.o(i.TIM_OC4Init), (124 bytes).
    Removing stm32f10x_tim.o(i.TIM_OC4PolarityConfig), (26 bytes).
    Removing stm32f10x_tim.o(i.TIM_OC4PreloadConfig), (26 bytes).
    Removing stm32f10x_tim.o(i.TIM_OCStructInit), (20 bytes).
    Removing stm32f10x_tim.o(i.TIM_PWMIConfig), (124 bytes).
    Removing stm32f10x_tim.o(i.TIM_PrescalerConfig), (6 bytes).
    Removing stm32f10x_tim.o(i.TIM_SelectCCDMA), (24 bytes).
    Removing stm32f10x_tim.o(i.TIM_SelectCOM), (24 bytes).
    Removing stm32f10x_tim.o(i.TIM_SelectHallSensor), (24 bytes).
    Removing stm32f10x_tim.o(i.TIM_SelectInputTrigger), (18 bytes).
    Removing stm32f10x_tim.o(i.TIM_SelectMasterSlaveMode), (18 bytes).
    Removing stm32f10x_tim.o(i.TIM_SelectOCxM), (82 bytes).
    Removing stm32f10x_tim.o(i.TIM_SelectOnePulseMode), (18 bytes).
    Removing stm32f10x_tim.o(i.TIM_SelectOutputTrigger), (18 bytes).
    Removing stm32f10x_tim.o(i.TIM_SelectSlaveMode), (18 bytes).
    Removing stm32f10x_tim.o(i.TIM_SetAutoreload), (4 bytes).
    Removing stm32f10x_tim.o(i.TIM_SetClockDivision), (18 bytes).
    Removing stm32f10x_tim.o(i.TIM_SetCompare1), (4 bytes).
    Removing stm32f10x_tim.o(i.TIM_SetCompare2), (4 bytes).
    Removing stm32f10x_tim.o(i.TIM_SetCompare3), (4 bytes).
    Removing stm32f10x_tim.o(i.TIM_SetCompare4), (6 bytes).
    Removing stm32f10x_tim.o(i.TIM_SetCounter), (4 bytes).
    Removing stm32f10x_tim.o(i.TIM_SetIC1Prescaler), (18 bytes).
    Removing stm32f10x_tim.o(i.TIM_SetIC2Prescaler), (26 bytes).
    Removing stm32f10x_tim.o(i.TIM_SetIC3Prescaler), (18 bytes).
    Removing stm32f10x_tim.o(i.TIM_SetIC4Prescaler), (26 bytes).
    Removing stm32f10x_tim.o(i.TIM_TIxExternalClockConfig), (62 bytes).
    Removing stm32f10x_tim.o(i.TIM_TimeBaseStructInit), (18 bytes).
    Removing stm32f10x_tim.o(i.TIM_UpdateDisableConfig), (24 bytes).
    Removing stm32f10x_tim.o(i.TIM_UpdateRequestConfig), (24 bytes).
    Removing stm32f10x_flash.o(i.FLASH_ClearFlag), (12 bytes).
    Removing stm32f10x_flash.o(i.FLASH_EnableWriteProtection), (196 bytes).
    Removing stm32f10x_flash.o(i.FLASH_EraseAllBank1Pages), (72 bytes).
    Removing stm32f10x_flash.o(i.FLASH_EraseAllPages), (72 bytes).
    Removing stm32f10x_flash.o(i.FLASH_EraseOptionBytes), (168 bytes).
    Removing stm32f10x_flash.o(i.FLASH_ErasePage), (76 bytes).
    Removing stm32f10x_flash.o(i.FLASH_GetBank1Status), (52 bytes).
    Removing stm32f10x_flash.o(i.FLASH_GetFlagStatus), (48 bytes).
    Removing stm32f10x_flash.o(i.FLASH_GetPrefetchBufferStatus), (24 bytes).
    Removing stm32f10x_flash.o(i.FLASH_GetReadOutProtectionStatus), (24 bytes).
    Removing stm32f10x_flash.o(i.FLASH_GetStatus), (52 bytes).
    Removing stm32f10x_flash.o(i.FLASH_GetUserOptionByte), (12 bytes).
    Removing stm32f10x_flash.o(i.FLASH_GetWriteProtectionOptionByte), (12 bytes).
    Removing stm32f10x_flash.o(i.FLASH_HalfCycleAccessCmd), (28 bytes).
    Removing stm32f10x_flash.o(i.FLASH_ITConfig), (32 bytes).
    Removing stm32f10x_flash.o(i.FLASH_Lock), (20 bytes).
    Removing stm32f10x_flash.o(i.FLASH_LockBank1), (20 bytes).
    Removing stm32f10x_flash.o(i.FLASH_ProgramHalfWord), (64 bytes).
    Removing stm32f10x_flash.o(i.FLASH_ProgramOptionByteData), (84 bytes).
    Removing stm32f10x_flash.o(i.FLASH_ProgramWord), (108 bytes).
    Removing stm32f10x_flash.o(i.FLASH_ReadOutProtection), (172 bytes).
    Removing stm32f10x_flash.o(i.FLASH_Unlock), (24 bytes).
    Removing stm32f10x_flash.o(i.FLASH_UnlockBank1), (24 bytes).
    Removing stm32f10x_flash.o(i.FLASH_UserOptionByteConfig), (104 bytes).
    Removing stm32f10x_flash.o(i.FLASH_WaitForLastBank1Operation), (38 bytes).
    Removing stm32f10x_flash.o(i.FLASH_WaitForLastOperation), (38 bytes).
    Removing stm32f10x_dac.o(i.DAC_Cmd), (40 bytes).
    Removing stm32f10x_dac.o(i.DAC_DMACmd), (44 bytes).
    Removing stm32f10x_dac.o(i.DAC_DeInit), (22 bytes).
    Removing stm32f10x_dac.o(i.DAC_DualSoftwareTriggerCmd), (36 bytes).
    Removing stm32f10x_dac.o(i.DAC_GetDataOutputValue), (36 bytes).
    Removing stm32f10x_dac.o(i.DAC_Init), (52 bytes).
    Removing stm32f10x_dac.o(i.DAC_SetChannel1Data), (32 bytes).
    Removing stm32f10x_dac.o(i.DAC_SetChannel2Data), (32 bytes).
    Removing stm32f10x_dac.o(i.DAC_SetDualChannelData), (36 bytes).
    Removing stm32f10x_dac.o(i.DAC_SoftwareTriggerCmd), (44 bytes).
    Removing stm32f10x_dac.o(i.DAC_StructInit), (12 bytes).
    Removing stm32f10x_dac.o(i.DAC_WaveGenerationCmd), (40 bytes).
    Removing stm32f10x_usart.o(i.USART_ClearFlag), (18 bytes).
    Removing stm32f10x_usart.o(i.USART_ClearITPendingBit), (30 bytes).
    Removing stm32f10x_usart.o(i.USART_ClockInit), (34 bytes).
    Removing stm32f10x_usart.o(i.USART_ClockStructInit), (12 bytes).
    Removing stm32f10x_usart.o(i.USART_DMACmd), (18 bytes).
    Removing stm32f10x_usart.o(i.USART_DeInit), (156 bytes).
    Removing stm32f10x_usart.o(i.USART_GetFlagStatus), (26 bytes).
    Removing stm32f10x_usart.o(i.USART_GetITStatus), (84 bytes).
    Removing stm32f10x_usart.o(i.USART_HalfDuplexCmd), (24 bytes).
    Removing stm32f10x_usart.o(i.USART_IrDACmd), (24 bytes).
    Removing stm32f10x_usart.o(i.USART_IrDAConfig), (18 bytes).
    Removing stm32f10x_usart.o(i.USART_LINBreakDetectLengthConfig), (18 bytes).
    Removing stm32f10x_usart.o(i.USART_LINCmd), (24 bytes).
    Removing stm32f10x_usart.o(i.USART_OneBitMethodCmd), (24 bytes).
    Removing stm32f10x_usart.o(i.USART_OverSampling8Cmd), (22 bytes).
    Removing stm32f10x_usart.o(i.USART_ReceiveData), (10 bytes).
    Removing stm32f10x_usart.o(i.USART_ReceiverWakeUpCmd), (24 bytes).
    Removing stm32f10x_usart.o(i.USART_SendBreak), (10 bytes).
    Removing stm32f10x_usart.o(i.USART_SendData), (8 bytes).
    Removing stm32f10x_usart.o(i.USART_SetAddress), (18 bytes).
    Removing stm32f10x_usart.o(i.USART_SetGuardTime), (16 bytes).
    Removing stm32f10x_usart.o(i.USART_SetPrescaler), (16 bytes).
    Removing stm32f10x_usart.o(i.USART_SmartCardCmd), (24 bytes).
    Removing stm32f10x_usart.o(i.USART_SmartCardNACKCmd), (24 bytes).
    Removing stm32f10x_usart.o(i.USART_StructInit), (24 bytes).
    Removing stm32f10x_usart.o(i.USART_WakeUpConfig), (18 bytes).
    Removing stm32f10x_adc.o(i.ADC_AnalogWatchdogCmd), (20 bytes).
    Removing stm32f10x_adc.o(i.ADC_AnalogWatchdogSingleChannelConfig), (16 bytes).
    Removing stm32f10x_adc.o(i.ADC_AnalogWatchdogThresholdsConfig), (6 bytes).
    Removing stm32f10x_adc.o(i.ADC_AutoInjectedConvCmd), (22 bytes).
    Removing stm32f10x_adc.o(i.ADC_ClearFlag), (6 bytes).
    Removing stm32f10x_adc.o(i.ADC_ClearITPendingBit), (10 bytes).
    Removing stm32f10x_adc.o(i.ADC_DMACmd), (22 bytes).
    Removing stm32f10x_adc.o(i.ADC_DeInit), (92 bytes).
    Removing stm32f10x_adc.o(i.ADC_DiscModeChannelCountConfig), (24 bytes).
    Removing stm32f10x_adc.o(i.ADC_DiscModeCmd), (22 bytes).
    Removing stm32f10x_adc.o(i.ADC_ExternalTrigConvCmd), (22 bytes).
    Removing stm32f10x_adc.o(i.ADC_ExternalTrigInjectedConvCmd), (22 bytes).
    Removing stm32f10x_adc.o(i.ADC_ExternalTrigInjectedConvConfig), (16 bytes).
    Removing stm32f10x_adc.o(i.ADC_GetDualModeConversionValue), (12 bytes).
    Removing stm32f10x_adc.o(i.ADC_GetFlagStatus), (18 bytes).
    Removing stm32f10x_adc.o(i.ADC_GetITStatus), (36 bytes).
    Removing stm32f10x_adc.o(i.ADC_GetInjectedConversionValue), (28 bytes).
    Removing stm32f10x_adc.o(i.ADC_GetSoftwareStartConvStatus), (20 bytes).
    Removing stm32f10x_adc.o(i.ADC_GetSoftwareStartInjectedConvCmdStatus), (20 bytes).
    Removing stm32f10x_adc.o(i.ADC_ITConfig), (24 bytes).
    Removing stm32f10x_adc.o(i.ADC_InjectedChannelConfig), (130 bytes).
    Removing stm32f10x_adc.o(i.ADC_InjectedDiscModeCmd), (22 bytes).
    Removing stm32f10x_adc.o(i.ADC_InjectedSequencerLengthConfig), (24 bytes).
    Removing stm32f10x_adc.o(i.ADC_SetInjectedOffset), (20 bytes).
    Removing stm32f10x_adc.o(i.ADC_SoftwareStartInjectedConvCmd), (22 bytes).
    Removing stm32f10x_adc.o(i.ADC_StructInit), (18 bytes).
    Removing stm32f10x_adc.o(i.ADC_TempSensorVrefintCmd), (36 bytes).
    Removing stm32f10x_dma.o(i.DMA_ClearFlag), (28 bytes).
    Removing stm32f10x_dma.o(i.DMA_ClearITPendingBit), (28 bytes).
    Removing stm32f10x_dma.o(i.DMA_Cmd), (24 bytes).
    Removing stm32f10x_dma.o(i.DMA_DeInit), (332 bytes).
    Removing stm32f10x_dma.o(i.DMA_GetCurrDataCounter), (8 bytes).
    Removing stm32f10x_dma.o(i.DMA_GetFlagStatus), (44 bytes).
    Removing stm32f10x_dma.o(i.DMA_GetITStatus), (44 bytes).
    Removing stm32f10x_dma.o(i.DMA_ITConfig), (18 bytes).
    Removing stm32f10x_dma.o(i.DMA_Init), (60 bytes).
    Removing stm32f10x_dma.o(i.DMA_SetCurrDataCounter), (4 bytes).
    Removing stm32f10x_dma.o(i.DMA_StructInit), (26 bytes).
    Removing stm32f10x_iwdg.o(i.IWDG_GetFlagStatus), (24 bytes).
    Removing stm32f10x_dbgmcu.o(i.DBGMCU_GetDEVID), (16 bytes).
    Removing stm32f10x_dbgmcu.o(i.DBGMCU_GetREVID), (12 bytes).
    Removing stm32f10x_exti.o(i.EXTI_ClearFlag), (12 bytes).
    Removing stm32f10x_exti.o(i.EXTI_DeInit), (36 bytes).
    Removing stm32f10x_exti.o(i.EXTI_GenerateSWInterrupt), (16 bytes).
    Removing stm32f10x_exti.o(i.EXTI_GetFlagStatus), (24 bytes).
    Removing stm32f10x_exti.o(i.EXTI_StructInit), (16 bytes).
    Removing stm32f10x_pwr.o(i.PWR_BackupAccessCmd), (12 bytes).
    Removing stm32f10x_pwr.o(i.PWR_ClearFlag), (20 bytes).
    Removing stm32f10x_pwr.o(i.PWR_DeInit), (22 bytes).
    Removing stm32f10x_pwr.o(i.PWR_EnterSTANDBYMode), (52 bytes).
    Removing stm32f10x_pwr.o(i.PWR_EnterSTOPMode), (64 bytes).
    Removing stm32f10x_pwr.o(i.PWR_GetFlagStatus), (24 bytes).
    Removing stm32f10x_pwr.o(i.PWR_PVDCmd), (12 bytes).
    Removing stm32f10x_pwr.o(i.PWR_PVDLevelConfig), (24 bytes).
    Removing stm32f10x_pwr.o(i.PWR_WakeUpPinCmd), (12 bytes).
    Removing stm32f10x_crc.o(i.CRC_CalcCRC), (16 bytes).
    Removing stm32f10x_crc.o(i.CRC_GetIDRegister), (12 bytes).
    Removing stm32f10x_crc.o(i.CRC_SetIDRegister), (12 bytes).
    Removing core_cm3.o(.emb_text), (32 bytes).
    Removing system_stm32f10x.o(i.SystemCoreClockUpdate), (164 bytes).
    Removing system_stm32f10x.o(.data), (20 bytes).
    Removing cmlib.o(i.CheckSum_Add), (26 bytes).
    Removing cmlib.o(i.CheckSum_BCC), (24 bytes).
    Removing cmlib.o(i.FIFO_ReadData), (66 bytes).
    Removing cmlib.o(i.FIFO_WriteData), (44 bytes).
    Removing cmlib.o(i.GetCeiling), (20 bytes).
    Removing cmlib.o(i.GetFloor), (20 bytes).
    Removing cmlib.o(i.cset), (18 bytes).
    Removing mix.o(.data), (8 bytes).
    Removing pcm.o(i.pcm_getstatus), (12 bytes).
    Removing adpcm.o(i.adpcm_coder), (284 bytes).
    Removing fmul.o(.text), (108 bytes).
    Removing fdiv.o(.text), (128 bytes).
    Removing dadd.o(.text), (334 bytes).
    Removing ddiv.o(.text), (222 bytes).
    Removing fflti.o(.text), (18 bytes).
    Removing ffltui.o(.text), (10 bytes).
    Removing ffixi.o(.text), (50 bytes).
    Removing f2d.o(.text), (38 bytes).
    Removing cdcmple.o(.text), (40 bytes).
    Removing cdrcmple.o(.text), (40 bytes).
    Removing d2f.o(.text), (56 bytes).
    Removing fepilogue.o(.text), (108 bytes).

353 unused section(s) (total 14466 bytes) removed from the image.

==============================================================================

Image Symbol Table

    Local Symbols

    Symbol Name                              Value     Ov Type        Size  Object(Section)

    ../clib/../cmprslib/zerorunl2.c          0x00000000   Number         0  __dczerorl2.o ABSOLUTE
    ../clib/microlib/init/entry.s            0x00000000   Number         0  entry.o ABSOLUTE
    ../clib/microlib/init/entry.s            0x00000000   Number         0  entry10b.o ABSOLUTE
    ../clib/microlib/init/entry.s            0x00000000   Number         0  entry10a.o ABSOLUTE
    ../clib/microlib/init/entry.s            0x00000000   Number         0  entry9b.o ABSOLUTE
    ../clib/microlib/init/entry.s            0x00000000   Number         0  entry8a.o ABSOLUTE
    ../clib/microlib/init/entry.s            0x00000000   Number         0  entry7b.o ABSOLUTE
    ../clib/microlib/init/entry.s            0x00000000   Number         0  entry7a.o ABSOLUTE
    ../clib/microlib/init/entry.s            0x00000000   Number         0  entry5.o ABSOLUTE
    ../clib/microlib/init/entry.s            0x00000000   Number         0  entry8b.o ABSOLUTE
    ../clib/microlib/init/entry.s            0x00000000   Number         0  entry2.o ABSOLUTE
    ../clib/microlib/init/entry.s            0x00000000   Number         0  entry9a.o ABSOLUTE
    ../clib/microlib/init/entry.s            0x00000000   Number         0  entry11b.o ABSOLUTE
    ../clib/microlib/init/entry.s            0x00000000   Number         0  entry11a.o ABSOLUTE
    ../clib/microlib/longlong.c              0x00000000   Number         0  llshl.o ABSOLUTE
    ../clib/microlib/longlong.c              0x00000000   Number         0  llsshr.o ABSOLUTE
    ../clib/microlib/longlong.c              0x00000000   Number         0  llushr.o ABSOLUTE
    ../clib/microlib/string/memcpy.c         0x00000000   Number         0  memcpya.o ABSOLUTE
    ../clib/microlib/string/memcpy.c         0x00000000   Number         0  memcpyb.o ABSOLUTE
    ../clib/microlib/string/memset.c         0x00000000   Number         0  memseta.o ABSOLUTE
    ../clib/microlib/stubs.s                 0x00000000   Number         0  iusefp.o ABSOLUTE
    ../fplib/microlib/d2f.c                  0x00000000   Number         0  d2f.o ABSOLUTE
    ../fplib/microlib/f2d.c                  0x00000000   Number         0  f2d.o ABSOLUTE
    ../fplib/microlib/fpadd.c                0x00000000   Number         0  dadd.o ABSOLUTE
    ../fplib/microlib/fpdiv.c                0x00000000   Number         0  fdiv.o ABSOLUTE
    ../fplib/microlib/fpdiv.c                0x00000000   Number         0  ddiv.o ABSOLUTE
    ../fplib/microlib/fpepilogue.c           0x00000000   Number         0  fepilogue.o ABSOLUTE
    ../fplib/microlib/fpepilogue.c           0x00000000   Number         0  depilogue.o ABSOLUTE
    ../fplib/microlib/fpfix.c                0x00000000   Number         0  ffixi.o ABSOLUTE
    ../fplib/microlib/fpfix.c                0x00000000   Number         0  dfixui.o ABSOLUTE
    ../fplib/microlib/fpflt.c                0x00000000   Number         0  fflti.o ABSOLUTE
    ../fplib/microlib/fpflt.c                0x00000000   Number         0  ffltui.o ABSOLUTE
    ../fplib/microlib/fpflt.c                0x00000000   Number         0  dflti.o ABSOLUTE
    ../fplib/microlib/fpmul.c                0x00000000   Number         0  fmul.o ABSOLUTE
    ../fplib/microlib/fpmul.c                0x00000000   Number         0  dmul.o ABSOLUTE
    ..\API\Config.c                          0x00000000   Number         0  config.o ABSOLUTE
    ..\API\Display.c                         0x00000000   Number         0  display.o ABSOLUTE
    ..\API\File.c                            0x00000000   Number         0  file.o ABSOLUTE
    ..\API\GEngineCfg.c                      0x00000000   Number         0  genginecfg.o ABSOLUTE
    ..\API\IAP.c                             0x00000000   Number         0  iap.o ABSOLUTE
    ..\API\SLAVERAPIS2.c                     0x00000000   Number         0  slaverapis2.o ABSOLUTE
    ..\API\g-sensor.c                        0x00000000   Number         0  g-sensor.o ABSOLUTE
    ..\API\hdr.c                             0x00000000   Number         0  hdr.o ABSOLUTE
    ..\API\nRF.c                             0x00000000   Number         0  nrf.o ABSOLUTE
    ..\APP\USART.c                           0x00000000   Number         0  usart.o ABSOLUTE
    ..\APP\hardware.c                        0x00000000   Number         0  hardware.o ABSOLUTE
    ..\APP\xiaomu.c                          0x00000000   Number         0  xiaomu.o ABSOLUTE
    ..\CMOS\CMLIB.c                          0x00000000   Number         0  cmlib.o ABSOLUTE
    ..\CMOS\CMOS.c                           0x00000000   Number         0  cmos.o ABSOLUTE
    ..\CMOS\asm.s                            0x00000000   Number         0  asm.o ABSOLUTE
    ..\CMSIS\Startup\startup_stm32f10x_hd.s  0x00000000   Number         0  startup_stm32f10x_hd.o ABSOLUTE
    ..\CMSIS\core_cm3.c                      0x00000000   Number         0  core_cm3.o ABSOLUTE
    ..\CMSIS\system_stm32f10x.c              0x00000000   Number         0  system_stm32f10x.o ABSOLUTE
    ..\Driver\Battery.c                      0x00000000   Number         0  battery.o ABSOLUTE
    ..\Driver\DAC.c                          0x00000000   Number         0  dac.o ABSOLUTE
    ..\Driver\Flash.c                        0x00000000   Number         0  flash.o ABSOLUTE
    ..\Driver\GD62429.c                      0x00000000   Number         0  gd62429.o ABSOLUTE
    ..\Driver\MMA7660FC.c                    0x00000000   Number         0  mma7660fc.o ABSOLUTE
    ..\Driver\Motor.c                        0x00000000   Number         0  motor.o ABSOLUTE
    ..\Driver\NRF24L01.c                     0x00000000   Number         0  nrf24l01.o ABSOLUTE
    ..\Driver\OneLine.c                      0x00000000   Number         0  oneline.o ABSOLUTE
    ..\Driver\SingleWireSlave.c              0x00000000   Number         0  singlewireslave.o ABSOLUTE
    ..\Driver\audio\adpcm.c                  0x00000000   Number         0  adpcm.o ABSOLUTE
    ..\Driver\audio\audio.c                  0x00000000   Number         0  audio.o ABSOLUTE
    ..\Driver\audio\chanel.c                 0x00000000   Number         0  chanel.o ABSOLUTE
    ..\Driver\audio\decode.c                 0x00000000   Number         0  decode.o ABSOLUTE
    ..\Driver\audio\mix.c                    0x00000000   Number         0  mix.o ABSOLUTE
    ..\Driver\audio\pcm.c                    0x00000000   Number         0  pcm.o ABSOLUTE
    ..\Driver\lcd.c                          0x00000000   Number         0  lcd.o ABSOLUTE
    ..\Driver\send.c                         0x00000000   Number         0  send.o ABSOLUTE
    ..\Driver\sentence.c                     0x00000000   Number         0  sentence.o ABSOLUTE
    ..\FWLib\src\misc.c                      0x00000000   Number         0  misc.o ABSOLUTE
    ..\FWLib\src\stm32f10x_adc.c             0x00000000   Number         0  stm32f10x_adc.o ABSOLUTE
    ..\FWLib\src\stm32f10x_crc.c             0x00000000   Number         0  stm32f10x_crc.o ABSOLUTE
    ..\FWLib\src\stm32f10x_dac.c             0x00000000   Number         0  stm32f10x_dac.o ABSOLUTE
    ..\FWLib\src\stm32f10x_dbgmcu.c          0x00000000   Number         0  stm32f10x_dbgmcu.o ABSOLUTE
    ..\FWLib\src\stm32f10x_dma.c             0x00000000   Number         0  stm32f10x_dma.o ABSOLUTE
    ..\FWLib\src\stm32f10x_exti.c            0x00000000   Number         0  stm32f10x_exti.o ABSOLUTE
    ..\FWLib\src\stm32f10x_flash.c           0x00000000   Number         0  stm32f10x_flash.o ABSOLUTE
    ..\FWLib\src\stm32f10x_gpio.c            0x00000000   Number         0  stm32f10x_gpio.o ABSOLUTE
    ..\FWLib\src\stm32f10x_iwdg.c            0x00000000   Number         0  stm32f10x_iwdg.o ABSOLUTE
    ..\FWLib\src\stm32f10x_pwr.c             0x00000000   Number         0  stm32f10x_pwr.o ABSOLUTE
    ..\FWLib\src\stm32f10x_rcc.c             0x00000000   Number         0  stm32f10x_rcc.o ABSOLUTE
    ..\FWLib\src\stm32f10x_spi.c             0x00000000   Number         0  stm32f10x_spi.o ABSOLUTE
    ..\FWLib\src\stm32f10x_tim.c             0x00000000   Number         0  stm32f10x_tim.o ABSOLUTE
    ..\FWLib\src\stm32f10x_usart.c           0x00000000   Number         0  stm32f10x_usart.o ABSOLUTE
    ..\\API\\IAP.c                           0x00000000   Number         0  iap.o ABSOLUTE
    ..\\CMSIS\\core_cm3.c                    0x00000000   Number         0  core_cm3.o ABSOLUTE
    cdcmple.s                                0x00000000   Number         0  cdcmple.o ABSOLUTE
    cdrcmple.s                               0x00000000   Number         0  cdrcmple.o ABSOLUTE
    dc.s                                     0x00000000   Number         0  dc.o ABSOLUTE
    handlers.s                               0x00000000   Number         0  handlers.o ABSOLUTE
    init.s                                   0x00000000   Number         0  init.o ABSOLUTE
    main.c                                   0x00000000   Number         0  main.o ABSOLUTE
    stm32f10x_it.c                           0x00000000   Number         0  stm32f10x_it.o ABSOLUTE
    RESET                                    0x08004000   Section      304  startup_stm32f10x_hd.o(RESET)
    .ARM.Collect$$$$00000000                 0x08004130   Section        0  entry.o(.ARM.Collect$$$$00000000)
    .ARM.Collect$$$$00000001                 0x08004130   Section        4  entry2.o(.ARM.Collect$$$$00000001)
    .ARM.Collect$$$$00000004                 0x08004134   Section        4  entry5.o(.ARM.Collect$$$$00000004)
    .ARM.Collect$$$$00000008                 0x08004138   Section        0  entry7b.o(.ARM.Collect$$$$00000008)
    .ARM.Collect$$$$0000000A                 0x08004138   Section        0  entry8b.o(.ARM.Collect$$$$0000000A)
    .ARM.Collect$$$$0000000B                 0x08004138   Section        8  entry9a.o(.ARM.Collect$$$$0000000B)
    .ARM.Collect$$$$0000000D                 0x08004140   Section        0  entry10a.o(.ARM.Collect$$$$0000000D)
    .ARM.Collect$$$$0000000F                 0x08004140   Section        0  entry11a.o(.ARM.Collect$$$$0000000F)
    .ARM.Collect$$$$00002712                 0x08004140   Section        4  entry2.o(.ARM.Collect$$$$00002712)
    __lit__00000000                          0x08004140   Data           4  entry2.o(.ARM.Collect$$$$00002712)
    .text                                    0x08004144   Section       60  startup_stm32f10x_hd.o(.text)
    .text                                    0x08004180   Section        0  memcpya.o(.text)
    .text                                    0x080041a4   Section        0  memseta.o(.text)
    .text                                    0x080041c8   Section        0  dmul.o(.text)
    .text                                    0x080042ac   Section        0  dflti.o(.text)
    .text                                    0x080042ce   Section        0  dfixui.o(.text)
    .text                                    0x08004300   Section        0  llshl.o(.text)
    .text                                    0x0800431e   Section        0  llushr.o(.text)
    .text                                    0x0800433e   Section        0  depilogue.o(.text)
    .text                                    0x0800433e   Section        0  iusefp.o(.text)
    .text                                    0x080043fc   Section       36  init.o(.text)
    .text                                    0x08004420   Section        0  __dczerorl2.o(.text)
    i.ADC_Cmd                                0x0800447c   Section        0  stm32f10x_adc.o(i.ADC_Cmd)
    i.ADC_GetCalibrationStatus               0x08004492   Section        0  stm32f10x_adc.o(i.ADC_GetCalibrationStatus)
    i.ADC_GetConversionValue                 0x080044a6   Section        0  stm32f10x_adc.o(i.ADC_GetConversionValue)
    i.ADC_GetResetCalibrationStatus          0x080044ae   Section        0  stm32f10x_adc.o(i.ADC_GetResetCalibrationStatus)
    i.ADC_Init                               0x080044c4   Section        0  stm32f10x_adc.o(i.ADC_Init)
    i.ADC_RegularChannelConfig               0x08004514   Section        0  stm32f10x_adc.o(i.ADC_RegularChannelConfig)
    i.ADC_ResetCalibration                   0x080045cc   Section        0  stm32f10x_adc.o(i.ADC_ResetCalibration)
    i.ADC_SoftwareStartConvCmd               0x080045d6   Section        0  stm32f10x_adc.o(i.ADC_SoftwareStartConvCmd)
    i.ADC_StartCalibration                   0x080045ec   Section        0  stm32f10x_adc.o(i.ADC_StartCalibration)
    i.AddGraph                               0x080045f8   Section        0  display.o(i.AddGraph)
    i.Bat_GetAD                              0x0800464c   Section        0  battery.o(i.Bat_GetAD)
    i.Bat_GetChargeState                     0x0800465c   Section        0  battery.o(i.Bat_GetChargeState)
    i.Bat_GetStandbyState                    0x08004674   Section        0  battery.o(i.Bat_GetStandbyState)
    i.Bat_Init                               0x0800468c   Section        0  battery.o(i.Bat_Init)
    i.Bat_IsChargForSlave                    0x08004768   Section        0  battery.o(i.Bat_IsChargForSlave)
    i.Bat_IsCharging                         0x080047a0   Section        0  battery.o(i.Bat_IsCharging)
    i.CMOS_GetTimer                          0x080047bc   Section        0  cmos.o(i.CMOS_GetTimer)
    i.CMOS_GetTimerCount                     0x080047c8   Section        0  cmos.o(i.CMOS_GetTimerCount)
    i.CMOS_InitReg                           0x080047d8   Section        0  cmos.o(i.CMOS_InitReg)
    CMOS_InitReg                             0x080047d9   Thumb Code     8  cmos.o(i.CMOS_InitReg)
    i.CMOS_Initialization                    0x080047e4   Section        0  cmos.o(i.CMOS_Initialization)
    i.CMOS_SetSystemClock                    0x080047fe   Section        0  cmos.o(i.CMOS_SetSystemClock)
    CMOS_SetSystemClock                      0x080047ff   Thumb Code   106  cmos.o(i.CMOS_SetSystemClock)
    i.CMOS_Timer2Config                      0x08004868   Section        0  cmos.o(i.CMOS_Timer2Config)
    CMOS_Timer2Config                        0x08004869   Thumb Code   102  cmos.o(i.CMOS_Timer2Config)
    i.CMOS_TimerProcess                      0x080048d0   Section        0  cmos.o(i.CMOS_TimerProcess)
    i.CRC_CalcBlockCRC                       0x080048e0   Section        0  stm32f10x_crc.o(i.CRC_CalcBlockCRC)
    i.CRC_GetCRC                             0x08004904   Section        0  stm32f10x_crc.o(i.CRC_GetCRC)
    i.CRC_MCU                                0x08004910   Section        0  hardware.o(i.CRC_MCU)
    i.CRC_ResetDR                            0x08004930   Section        0  stm32f10x_crc.o(i.CRC_ResetDR)
    i.CRC_SPI                                0x0800493c   Section        0  hardware.o(i.CRC_SPI)
    i.CheckAutoPowerOff                      0x0800497c   Section        0  cmos.o(i.CheckAutoPowerOff)
    i.ClearGraphLayer                        0x080049b0   Section        0  display.o(i.ClearGraphLayer)
    i.ClearScreen                            0x080049d8   Section        0  display.o(i.ClearScreen)
    i.ClrAutoPowerOff                        0x080049e4   Section        0  cmos.o(i.ClrAutoPowerOff)
    i.Console_Open                           0x08004a00   Section        0  display.o(i.Console_Open)
    i.DBGMCU_Config                          0x08004a34   Section        0  stm32f10x_dbgmcu.o(i.DBGMCU_Config)
    i.DB_Write                               0x08004a54   Section        0  lcd.o(i.DB_Write)
    DB_Write                                 0x08004a55   Thumb Code    16  lcd.o(i.DB_Write)
    i.Delay                                  0x08004a68   Section        0  mma7660fc.o(i.Delay)
    Delay                                    0x08004a69   Thumb Code    16  mma7660fc.o(i.Delay)
    i.Display_CheckUpdate                    0x08004a78   Section        0  display.o(i.Display_CheckUpdate)
    i.Display_Initialization                 0x08004aa0   Section        0  display.o(i.Display_Initialization)
    i.EXTI0_IRQHandler                       0x08004af4   Section        0  mma7660fc.o(i.EXTI0_IRQHandler)
    i.EXTI15_10_IRQHandler                   0x08004c50   Section        0  singlewireslave.o(i.EXTI15_10_IRQHandler)
    i.EXTI9_5_IRQHandler                     0x08004d98   Section        0  nrf24l01.o(i.EXTI9_5_IRQHandler)
    i.EXTI_ClearITPendingBit                 0x08004df8   Section        0  stm32f10x_exti.o(i.EXTI_ClearITPendingBit)
    i.EXTI_GetITStatus                       0x08004e04   Section        0  stm32f10x_exti.o(i.EXTI_GetITStatus)
    i.EXTI_Init                              0x08004e2c   Section        0  stm32f10x_exti.o(i.EXTI_Init)
    i.FIFO_GetPopIndex                       0x08004ec0   Section        0  cmlib.o(i.FIFO_GetPopIndex)
    i.FIFO_GetPushIndex                      0x08004f00   Section        0  cmlib.o(i.FIFO_GetPushIndex)
    i.FIFO_Init                              0x08004f28   Section        0  cmlib.o(i.FIFO_Init)
    i.FIFO_Reset                             0x08004f38   Section        0  cmlib.o(i.FIFO_Reset)
    i.FLASH_PrefetchBufferCmd                0x08004f40   Section        0  stm32f10x_flash.o(i.FLASH_PrefetchBufferCmd)
    i.FLASH_SetLatency                       0x08004f5c   Section        0  stm32f10x_flash.o(i.FLASH_SetLatency)
    i.F_DB_In                                0x08004f74   Section        0  flash.o(i.F_DB_In)
    F_DB_In                                  0x08004f75   Thumb Code    32  flash.o(i.F_DB_In)
    i.F_DB_Out                               0x08004f98   Section        0  flash.o(i.F_DB_Out)
    F_DB_Out                                 0x08004f99   Thumb Code    32  flash.o(i.F_DB_Out)
    i.F_Enter_QPI_Mode                       0x08004fbc   Section        0  flash.o(i.F_Enter_QPI_Mode)
    F_Enter_QPI_Mode                         0x08004fbd   Thumb Code   110  flash.o(i.F_Enter_QPI_Mode)
    i.F_GPIO_QPI_Mode                        0x0800502c   Section        0  flash.o(i.F_GPIO_QPI_Mode)
    F_GPIO_QPI_Mode                          0x0800502d   Thumb Code    80  flash.o(i.F_GPIO_QPI_Mode)
    i.F_GPIO_SPI_Mode                        0x08005084   Section        0  flash.o(i.F_GPIO_SPI_Mode)
    F_GPIO_SPI_Mode                          0x08005085   Thumb Code   118  flash.o(i.F_GPIO_SPI_Mode)
    i.F_QPI_Check_JEDEC_ID                   0x08005104   Section        0  flash.o(i.F_QPI_Check_JEDEC_ID)
    F_QPI_Check_JEDEC_ID                     0x08005105   Thumb Code    64  flash.o(i.F_QPI_Check_JEDEC_ID)
    i.F_QPI_R                                0x08005144   Section        0  flash.o(i.F_QPI_R)
    F_QPI_R                                  0x08005145   Thumb Code    50  flash.o(i.F_QPI_R)
    i.F_QPI_W                                0x08005180   Section        0  flash.o(i.F_QPI_W)
    F_QPI_W                                  0x08005181   Thumb Code    60  flash.o(i.F_QPI_W)
    i.F_SPI_Check_JEDEC_ID                   0x080051c4   Section        0  flash.o(i.F_SPI_Check_JEDEC_ID)
    F_SPI_Check_JEDEC_ID                     0x080051c5   Thumb Code    56  flash.o(i.F_SPI_Check_JEDEC_ID)
    i.F_SPI_R                                0x080051fc   Section        0  flash.o(i.F_SPI_R)
    F_SPI_R                                  0x080051fd   Thumb Code    48  flash.o(i.F_SPI_R)
    i.F_SPI_W                                0x08005234   Section        0  flash.o(i.F_SPI_W)
    F_SPI_W                                  0x08005235   Thumb Code    50  flash.o(i.F_SPI_W)
    i.F_WR_Start                             0x08005270   Section        0  flash.o(i.F_WR_Start)
    F_WR_Start                               0x08005271   Thumb Code    14  flash.o(i.F_WR_Start)
    i.F_WR_Stop                              0x08005284   Section        0  flash.o(i.F_WR_Stop)
    F_WR_Stop                                0x08005285   Thumb Code    14  flash.o(i.F_WR_Stop)
    i.File_GetGraphInfo                      0x08005298   Section        0  file.o(i.File_GetGraphInfo)
    i.File_GetGraphSum                       0x0800534c   Section        0  file.o(i.File_GetGraphSum)
    i.File_Read                              0x0800535c   Section        0  file.o(i.File_Read)
    i.File_SetBaseAddr                       0x08005370   Section        0  file.o(i.File_SetBaseAddr)
    i.Flash_4K_Erase                         0x080053c4   Section        0  flash.o(i.Flash_4K_Erase)
    i.Flash_4K_Erase_Start                   0x080053f6   Section        0  flash.o(i.Flash_4K_Erase_Start)
    i.Flash_Init                             0x08005424   Section        0  flash.o(i.Flash_Init)
    i.Flash_Read                             0x08005498   Section        0  flash.o(i.Flash_Read)
    i.Flash_Read_Status_Reg                  0x08005508   Section        0  flash.o(i.Flash_Read_Status_Reg)
    i.Flash_Set_Read_Param                   0x08005544   Section        0  flash.o(i.Flash_Set_Read_Param)
    Flash_Set_Read_Param                     0x08005545   Thumb Code    40  flash.o(i.Flash_Set_Read_Param)
    i.Flash_Wait_Done                        0x0800556c   Section        0  flash.o(i.Flash_Wait_Done)
    Flash_Wait_Done                          0x0800556d   Thumb Code    38  flash.o(i.Flash_Wait_Done)
    i.Flash_Write                            0x08005592   Section        0  flash.o(i.Flash_Write)
    i.Flash_Write_Enable                     0x08005618   Section        0  flash.o(i.Flash_Write_Enable)
    Flash_Write_Enable                       0x08005619   Thumb Code    18  flash.o(i.Flash_Write_Enable)
    i.Flash_Write_Page                       0x0800562a   Section        0  flash.o(i.Flash_Write_Page)
    i.Flash_Write_Status_Reg                 0x08005678   Section        0  flash.o(i.Flash_Write_Status_Reg)
    i.FrushDspBuffer                         0x080056b4   Section        0  display.o(i.FrushDspBuffer)
    i.FrushRectangle                         0x080056f4   Section        0  display.o(i.FrushRectangle)
    i.GD62429_GPIO_Init                      0x0800572c   Section        0  gd62429.o(i.GD62429_GPIO_Init)
    i.GD_I2C_W                               0x08005780   Section        0  gd62429.o(i.GD_I2C_W)
    i.GEA_AddAnimation                       0x080057f8   Section        0  hdr.o(i.GEA_AddAnimation)
    i.GEA_ClePutRef                          0x080058b0   Section        0  slaverapis2.o(i.GEA_ClePutRef)
    i.GEA_ClearAnimationFifo                 0x080058fc   Section        0  hdr.o(i.GEA_ClearAnimationFifo)
    i.GEA_ClearLayer                         0x08005944   Section        0  slaverapis2.o(i.GEA_ClearLayer)
    i.GEA_DeleteAnimation                    0x08005966   Section        0  hdr.o(i.GEA_DeleteAnimation)
    i.GEA_GetGName                           0x080059ae   Section        0  config.o(i.GEA_GetGName)
    i.GEA_GetJoyStickStatus                  0x080059c0   Section        0  slaverapis2.o(i.GEA_GetJoyStickStatus)
    i.GEA_GetNearStatus                      0x08005a80   Section        0  send.o(i.GEA_GetNearStatus)
    i.GEA_GetSpeechStatus                    0x08005aa0   Section        0  sentence.o(i.GEA_GetSpeechStatus)
    i.GEA_LoopSpeech                         0x08005adc   Section        0  sentence.o(i.GEA_LoopSpeech)
    i.GEA_MotorCtrl                          0x08005afc   Section        0  motor.o(i.GEA_MotorCtrl)
    i.GEA_PlayAnimation                      0x08005b38   Section        0  hdr.o(i.GEA_PlayAnimation)
    i.GEA_PlaySpeech                         0x08005b54   Section        0  sentence.o(i.GEA_PlaySpeech)
    i.GEA_PowerOff                           0x08005bac   Section        0  xiaomu.o(i.GEA_PowerOff)
    i.GEA_PutGraph                           0x08005bb6   Section        0  slaverapis2.o(i.GEA_PutGraph)
    i.GEA_SetGName                           0x08005bfa   Section        0  config.o(i.GEA_SetGName)
    i.GEA_SetMode                            0x08005c08   Section        0  slaverapis2.o(i.GEA_SetMode)
    i.GEA_SetSpeechList                      0x08005c78   Section        0  sentence.o(i.GEA_SetSpeechList)
    i.GEA_SetTimCnt                          0x08005cdc   Section        0  cmos.o(i.GEA_SetTimCnt)
    i.GEA_SlaverState                        0x08005cf4   Section        0  slaverapis2.o(i.GEA_SlaverState)
    i.GEA_StopAnimation                      0x08005d1c   Section        0  hdr.o(i.GEA_StopAnimation)
    i.GEA_StopSpeech                         0x08005d64   Section        0  sentence.o(i.GEA_StopSpeech)
    i.GEA_Transport                          0x08005da0   Section        0  xiaomu.o(i.GEA_Transport)
    i.GPIO_EXTILineConfig                    0x08005dac   Section        0  stm32f10x_gpio.o(i.GPIO_EXTILineConfig)
    i.GPIO_Init                              0x08005dec   Section        0  stm32f10x_gpio.o(i.GPIO_Init)
    i.GPIO_PinRemapConfig                    0x08005f00   Section        0  stm32f10x_gpio.o(i.GPIO_PinRemapConfig)
    i.GPIO_ReadInputDataBit                  0x08005f90   Section        0  stm32f10x_gpio.o(i.GPIO_ReadInputDataBit)
    i.GPIO_ResetBits                         0x08005fa2   Section        0  stm32f10x_gpio.o(i.GPIO_ResetBits)
    i.GPIO_SetBits                           0x08005fa6   Section        0  stm32f10x_gpio.o(i.GPIO_SetBits)
    i.GPIO_WriteBit                          0x08005faa   Section        0  stm32f10x_gpio.o(i.GPIO_WriteBit)
    i.G_CallFuntion                          0x08005fb4   Section        0  xiaomu.o(i.G_CallFuntion)
    i.GetResourceAddr                        0x08005fe4   Section        0  file.o(i.GetResourceAddr)
    i.GetResourceData                        0x08006040   Section        0  file.o(i.GetResourceData)
    i.GetResourceDataP                       0x08006056   Section        0  file.o(i.GetResourceDataP)
    i.GetResourceItemAddr                    0x08006078   Section        0  file.o(i.GetResourceItemAddr)
    i.GetResourceItemNum                     0x080060a2   Section        0  file.o(i.GetResourceItemNum)
    i.GetShakeRate                           0x080060c0   Section        0  mma7660fc.o(i.GetShakeRate)
    GetShakeRate                             0x080060c1   Thumb Code    70  mma7660fc.o(i.GetShakeRate)
    i.GetVisibleRegion                       0x08006106   Section        0  display.o(i.GetVisibleRegion)
    GetVisibleRegion                         0x08006107   Thumb Code   172  display.o(i.GetVisibleRegion)
    i.Get_Box_XYZ                            0x080061b2   Section        0  g-sensor.o(i.Get_Box_XYZ)
    i.I2C_R                                  0x080063e4   Section        0  mma7660fc.o(i.I2C_R)
    I2C_R                                    0x080063e5   Thumb Code   130  mma7660fc.o(i.I2C_R)
    i.I2C_Start                              0x0800646c   Section        0  mma7660fc.o(i.I2C_Start)
    I2C_Start                                0x0800646d   Thumb Code    38  mma7660fc.o(i.I2C_Start)
    i.I2C_Stop                               0x08006498   Section        0  mma7660fc.o(i.I2C_Stop)
    I2C_Stop                                 0x08006499   Thumb Code    28  mma7660fc.o(i.I2C_Stop)
    i.I2C_W                                  0x080064b8   Section        0  mma7660fc.o(i.I2C_W)
    I2C_W                                    0x080064b9   Thumb Code   134  mma7660fc.o(i.I2C_W)
    i.IWDG_Enable                            0x08006544   Section        0  stm32f10x_iwdg.o(i.IWDG_Enable)
    i.IWDG_ReloadCounter                     0x08006554   Section        0  stm32f10x_iwdg.o(i.IWDG_ReloadCounter)
    i.IWDG_SetPrescaler                      0x08006564   Section        0  stm32f10x_iwdg.o(i.IWDG_SetPrescaler)
    i.IWDG_SetReload                         0x08006570   Section        0  stm32f10x_iwdg.o(i.IWDG_SetReload)
    i.IWDG_WriteAccessCmd                    0x0800657c   Section        0  stm32f10x_iwdg.o(i.IWDG_WriteAccessCmd)
    i.InitConfig                             0x08006588   Section        0  config.o(i.InitConfig)
    i.IsVoiceBusy                            0x080065f8   Section        0  audio.o(i.IsVoiceBusy)
    i.Lcd_GPIOInit                           0x08006608   Section        0  lcd.o(i.Lcd_GPIOInit)
    Lcd_GPIOInit                             0x08006609   Thumb Code    68  lcd.o(i.Lcd_GPIOInit)
    i.Lcd_Init                               0x08006654   Section        0  lcd.o(i.Lcd_Init)
    i.Lcd_Off                                0x08006678   Section        0  lcd.o(i.Lcd_Off)
    i.Lcd_On                                 0x0800669c   Section        0  lcd.o(i.Lcd_On)
    i.Lcd_RefreshScreen                      0x080066c8   Section        0  lcd.o(i.Lcd_RefreshScreen)
    i.Lcd_Reset                              0x080066e8   Section        0  lcd.o(i.Lcd_Reset)
    Lcd_Reset                                0x080066e9   Thumb Code    28  lcd.o(i.Lcd_Reset)
    i.Lcd_Set_Window                         0x08006708   Section        0  lcd.o(i.Lcd_Set_Window)
    i.Lcd_Write_Buf                          0x0800675c   Section        0  lcd.o(i.Lcd_Write_Buf)
    i.Lcd_Write_Cmd                          0x080067c4   Section        0  lcd.o(i.Lcd_Write_Cmd)
    i.Lcd_Write_Param                        0x080067f0   Section        0  lcd.o(i.Lcd_Write_Param)
    i.Lcd_initOn                             0x0800681c   Section        0  lcd.o(i.Lcd_initOn)
    i.MMA7660FC_GPIO_Init                    0x08006838   Section        0  mma7660fc.o(i.MMA7660FC_GPIO_Init)
    MMA7660FC_GPIO_Init                      0x08006839   Thumb Code    98  mma7660fc.o(i.MMA7660FC_GPIO_Init)
    i.MMA7660FC_GetShakeState                0x080068a4   Section        0  mma7660fc.o(i.MMA7660FC_GetShakeState)
    i.MMA7660FC_INT_Init                     0x08006924   Section        0  mma7660fc.o(i.MMA7660FC_INT_Init)
    MMA7660FC_INT_Init                       0x08006925   Thumb Code    70  mma7660fc.o(i.MMA7660FC_INT_Init)
    i.MMA7660FC_Init                         0x0800696c   Section        0  mma7660fc.o(i.MMA7660FC_Init)
    i.MMA7660FC_Standby                      0x08006a24   Section        0  mma7660fc.o(i.MMA7660FC_Standby)
    i.MMA7660FC_To_Angle                     0x08006a40   Section        0  mma7660fc.o(i.MMA7660FC_To_Angle)
    i.MMA7660FC_XYZ                          0x08006a5c   Section        0  mma7660fc.o(i.MMA7660FC_XYZ)
    i.Motor_Check                            0x08006ab0   Section        0  motor.o(i.Motor_Check)
    i.Motor_Init                             0x08006ad0   Section        0  motor.o(i.Motor_Init)
    i.Motor_Off                              0x08006b00   Section        0  motor.o(i.Motor_Off)
    i.Motor_On                               0x08006b18   Section        0  motor.o(i.Motor_On)
    i.NVIC_Init                              0x08006b30   Section        0  misc.o(i.NVIC_Init)
    i.NVIC_PriorityGroupConfig               0x08006ba4   Section        0  misc.o(i.NVIC_PriorityGroupConfig)
    i.NearSensorInit                         0x08006bb8   Section        0  send.o(i.NearSensorInit)
    NearSensorInit                           0x08006bb9   Thumb Code    56  send.o(i.NearSensorInit)
    i.ONELINE_Init                           0x08006bf4   Section        0  oneline.o(i.ONELINE_Init)
    i.PlayVoice                              0x08006c60   Section        0  audio.o(i.PlayVoice)
    i.PutChar                                0x08006cd4   Section        0  display.o(i.PutChar)
    i.PutChar8x16                            0x08006ce8   Section        0  display.o(i.PutChar8x16)
    PutChar8x16                              0x08006ce9   Thumb Code   130  display.o(i.PutChar8x16)
    i.PutGraph                               0x08006d74   Section        0  display.o(i.PutGraph)
    i.PutHex                                 0x08006fb8   Section        0  display.o(i.PutHex)
    i.PutHexBlock                            0x08006ffe   Section        0  display.o(i.PutHexBlock)
    i.PutString                              0x08007042   Section        0  display.o(i.PutString)
    i.RCC_ADCCLKConfig                       0x08007070   Section        0  stm32f10x_rcc.o(i.RCC_ADCCLKConfig)
    i.RCC_APB1PeriphClockCmd                 0x08007088   Section        0  stm32f10x_rcc.o(i.RCC_APB1PeriphClockCmd)
    i.RCC_APB1PeriphResetCmd                 0x080070a8   Section        0  stm32f10x_rcc.o(i.RCC_APB1PeriphResetCmd)
    i.RCC_APB2PeriphClockCmd                 0x080070c8   Section        0  stm32f10x_rcc.o(i.RCC_APB2PeriphClockCmd)
    i.RCC_APB2PeriphResetCmd                 0x080070e8   Section        0  stm32f10x_rcc.o(i.RCC_APB2PeriphResetCmd)
    i.RCC_DeInit                             0x08007108   Section        0  stm32f10x_rcc.o(i.RCC_DeInit)
    i.RCC_GetClocksFreq                      0x08007154   Section        0  stm32f10x_rcc.o(i.RCC_GetClocksFreq)
    i.RCC_GetFlagStatus                      0x08007228   Section        0  stm32f10x_rcc.o(i.RCC_GetFlagStatus)
    i.RCC_GetSYSCLKSource                    0x08007264   Section        0  stm32f10x_rcc.o(i.RCC_GetSYSCLKSource)
    i.RCC_HCLKConfig                         0x08007274   Section        0  stm32f10x_rcc.o(i.RCC_HCLKConfig)
    i.RCC_HSEConfig                          0x0800728c   Section        0  stm32f10x_rcc.o(i.RCC_HSEConfig)
    i.RCC_PCLK1Config                        0x080072d8   Section        0  stm32f10x_rcc.o(i.RCC_PCLK1Config)
    i.RCC_PCLK2Config                        0x080072f0   Section        0  stm32f10x_rcc.o(i.RCC_PCLK2Config)
    i.RCC_PLLCmd                             0x08007308   Section        0  stm32f10x_rcc.o(i.RCC_PLLCmd)
    i.RCC_PLLConfig                          0x08007314   Section        0  stm32f10x_rcc.o(i.RCC_PLLConfig)
    i.RCC_SYSCLKConfig                       0x08007330   Section        0  stm32f10x_rcc.o(i.RCC_SYSCLKConfig)
    i.RCC_WaitForHSEStartUp                  0x08007348   Section        0  stm32f10x_rcc.o(i.RCC_WaitForHSEStartUp)
    i.RGB2Y                                  0x08007380   Section        0  display.o(i.RGB2Y)
    i.RGBtosixteen                           0x080073d8   Section        0  display.o(i.RGBtosixteen)
    i.RS_ConfigHW                            0x0800740c   Section        0  usart.o(i.RS_ConfigHW)
    RS_ConfigHW                              0x0800740d   Thumb Code   168  usart.o(i.RS_ConfigHW)
    i.RS_ConfigReg                           0x080074c0   Section        0  usart.o(i.RS_ConfigReg)
    RS_ConfigReg                             0x080074c1   Thumb Code    12  usart.o(i.RS_ConfigReg)
    i.RS_Init                                0x080074d0   Section        0  usart.o(i.RS_Init)
    i.Read_Reg                               0x080074e0   Section        0  mma7660fc.o(i.Read_Reg)
    Read_Reg                                 0x080074e1   Thumb Code    46  mma7660fc.o(i.Read_Reg)
    i.Read_Reg_Queue                         0x0800750e   Section        0  mma7660fc.o(i.Read_Reg_Queue)
    Read_Reg_Queue                           0x0800750f   Thumb Code    72  mma7660fc.o(i.Read_Reg_Queue)
    i.RefreshGraphs                          0x08007558   Section        0  display.o(i.RefreshGraphs)
    i.RefreshScreen                          0x080075b4   Section        0  display.o(i.RefreshScreen)
    i.ResetRecieveMode                       0x080075dc   Section        0  nrf24l01.o(i.ResetRecieveMode)
    i.Resetproisok                           0x080075ee   Section        0  config.o(i.Resetproisok)
    i.SDA_In                                 0x080075fc   Section        0  mma7660fc.o(i.SDA_In)
    SDA_In                                   0x080075fd   Thumb Code    28  mma7660fc.o(i.SDA_In)
    i.SDA_Out                                0x0800761c   Section        0  mma7660fc.o(i.SDA_Out)
    SDA_Out                                  0x0800761d   Thumb Code    28  mma7660fc.o(i.SDA_Out)
    i.SPI_Cmd                                0x0800763c   Section        0  stm32f10x_spi.o(i.SPI_Cmd)
    i.SPI_I2S_ClearFlag                      0x08007654   Section        0  stm32f10x_spi.o(i.SPI_I2S_ClearFlag)
    i.SPI_I2S_GetFlagStatus                  0x0800765a   Section        0  stm32f10x_spi.o(i.SPI_I2S_GetFlagStatus)
    i.SPI_I2S_ReceiveData                    0x0800766c   Section        0  stm32f10x_spi.o(i.SPI_I2S_ReceiveData)
    i.SPI_I2S_SendData                       0x08007672   Section        0  stm32f10x_spi.o(i.SPI_I2S_SendData)
    i.SPI_Init                               0x08007676   Section        0  stm32f10x_spi.o(i.SPI_Init)
    i.SPI_NRF_Init                           0x080076b4   Section        0  nrf24l01.o(i.SPI_NRF_Init)
    i.SWS_BytesToRead                        0x080077a0   Section        0  singlewireslave.o(i.SWS_BytesToRead)
    i.SWS_Init                               0x080077ac   Section        0  singlewireslave.o(i.SWS_Init)
    i.SWS_ReadBytes                          0x08007870   Section        0  singlewireslave.o(i.SWS_ReadBytes)
    i.SWS_SendBytes                          0x08007888   Section        0  singlewireslave.o(i.SWS_SendBytes)
    i.SWS_getBytes                           0x080078cc   Section        0  singlewireslave.o(i.SWS_getBytes)
    i.SW_Check                               0x08007904   Section        0  xiaomu.o(i.SW_Check)
    SW_Check                                 0x08007905   Thumb Code   476  xiaomu.o(i.SW_Check)
    i.SendMessage                            0x08007ae4   Section        0  nrf24l01.o(i.SendMessage)
    i.SetDisplayUpdate                       0x08007b1c   Section        0  display.o(i.SetDisplayUpdate)
    i.SetSysClock                            0x08007b30   Section        0  system_stm32f10x.o(i.SetSysClock)
    SetSysClock                              0x08007b31   Thumb Code     8  system_stm32f10x.o(i.SetSysClock)
    i.SetSysClockTo72                        0x08007b38   Section        0  system_stm32f10x.o(i.SetSysClockTo72)
    SetSysClockTo72                          0x08007b39   Thumb Code   212  system_stm32f10x.o(i.SetSysClockTo72)
    i.StopBGM                                0x08007c14   Section        0  audio.o(i.StopBGM)
    i.StopVoice                              0x08007c20   Section        0  audio.o(i.StopVoice)
    i.SystemInit                             0x08007c2c   Section        0  system_stm32f10x.o(i.SystemInit)
    i.TIM2_IRQHandler                        0x08007c8c   Section        0  stm32f10x_it.o(i.TIM2_IRQHandler)
    i.TIM3_IRQHandler                        0x08007cc4   Section        0  pcm.o(i.TIM3_IRQHandler)
    i.TIM_ClearFlag                          0x08007dd4   Section        0  stm32f10x_tim.o(i.TIM_ClearFlag)
    i.TIM_ClearITPendingBit                  0x08007dda   Section        0  stm32f10x_tim.o(i.TIM_ClearITPendingBit)
    i.TIM_Cmd                                0x08007de0   Section        0  stm32f10x_tim.o(i.TIM_Cmd)
    i.TIM_DeInit                             0x08007df8   Section        0  stm32f10x_tim.o(i.TIM_DeInit)
    i.TIM_GetITStatus                        0x08007fe0   Section        0  stm32f10x_tim.o(i.TIM_GetITStatus)
    i.TIM_ITConfig                           0x08008002   Section        0  stm32f10x_tim.o(i.TIM_ITConfig)
    i.TIM_TimeBaseInit                       0x08008014   Section        0  stm32f10x_tim.o(i.TIM_TimeBaseInit)
    i.USART_Cmd                              0x080080b8   Section        0  stm32f10x_usart.o(i.USART_Cmd)
    i.USART_ITConfig                         0x080080d0   Section        0  stm32f10x_usart.o(i.USART_ITConfig)
    i.USART_Init                             0x0800811c   Section        0  stm32f10x_usart.o(i.USART_Init)
    i.WriteSlaverID                          0x080081f4   Section        0  config.o(i.WriteSlaverID)
    i.Write_Reg                              0x08008208   Section        0  mma7660fc.o(i.Write_Reg)
    Write_Reg                                0x08008209   Thumb Code    34  mma7660fc.o(i.Write_Reg)
    i._PlayBGM                               0x0800822c   Section        0  audio.o(i._PlayBGM)
    i.__scatterload_copy                     0x080082a4   Section       14  handlers.o(i.__scatterload_copy)
    i.__scatterload_null                     0x080082b2   Section        2  handlers.o(i.__scatterload_null)
    i.__scatterload_zeroinit                 0x080082b4   Section       14  handlers.o(i.__scatterload_zeroinit)
    i.adpcm_decoder                          0x080082c4   Section        0  adpcm.o(i.adpcm_decoder)
    i.audio_Init                             0x0800839c   Section        0  audio.o(i.audio_Init)
    i.audio_checkmsg                         0x080083b8   Section        0  audio.o(i.audio_checkmsg)
    i.ccopy                                  0x08008440   Section        0  cmlib.o(i.ccopy)
    i.chanel_fillbuf                         0x0800847c   Section        0  chanel.o(i.chanel_fillbuf)
    i.checkpower                             0x08008590   Section        0  xiaomu.o(i.checkpower)
    i.configchecksum                         0x08008744   Section        0  config.o(i.configchecksum)
    configchecksum                           0x08008745   Thumb Code    28  config.o(i.configchecksum)
    i.decode                                 0x08008760   Section        0  decode.o(i.decode)
    i.fifo_read_buf                          0x08008780   Section        0  singlewireslave.o(i.fifo_read_buf)
    fifo_read_buf                            0x08008781   Thumb Code    40  singlewireslave.o(i.fifo_read_buf)
    i.fifo_read_byte                         0x080087a8   Section        0  singlewireslave.o(i.fifo_read_byte)
    fifo_read_byte                           0x080087a9   Thumb Code    44  singlewireslave.o(i.fifo_read_byte)
    i.fifo_reset                             0x080087d4   Section        0  singlewireslave.o(i.fifo_reset)
    fifo_reset                               0x080087d5   Thumb Code    10  singlewireslave.o(i.fifo_reset)
    i.fifo_set_buf                           0x080087de   Section        0  singlewireslave.o(i.fifo_set_buf)
    fifo_set_buf                             0x080087df   Thumb Code     6  singlewireslave.o(i.fifo_set_buf)
    i.fifo_write_buf                         0x080087e4   Section        0  singlewireslave.o(i.fifo_write_buf)
    fifo_write_buf                           0x080087e5   Thumb Code    32  singlewireslave.o(i.fifo_write_buf)
    i.fifo_write_byte                        0x08008804   Section        0  singlewireslave.o(i.fifo_write_byte)
    fifo_write_byte                          0x08008805   Thumb Code    44  singlewireslave.o(i.fifo_write_byte)
    i.gSensor_Box_X_Angle                    0x08008830   Section        0  g-sensor.o(i.gSensor_Box_X_Angle)
    i.gSensor_Box_Y_Angle                    0x08008844   Section        0  g-sensor.o(i.gSensor_Box_Y_Angle)
    i.gSensor_Box_Z_Angle                    0x08008858   Section        0  g-sensor.o(i.gSensor_Box_Z_Angle)
    i.gSensor_Init                           0x0800886c   Section        0  g-sensor.o(i.gSensor_Init)
    i.gSensor_TopSurface                     0x08008874   Section        0  g-sensor.o(i.gSensor_TopSurface)
    i.gSensor_Update                         0x08008928   Section        0  g-sensor.o(i.gSensor_Update)
    i.gSensor_WaveRank                       0x08008980   Section        0  g-sensor.o(i.gSensor_WaveRank)
    i.getConfig                              0x080089b4   Section        0  config.o(i.getConfig)
    i.getMotorFlag                           0x080089bc   Section        0  motor.o(i.getMotorFlag)
    i.getgname                               0x080089c8   Section        0  config.o(i.getgname)
    i.hardware_main                          0x08008a4c   Section        0  hardware.o(i.hardware_main)
    i.hdr_Init                               0x08008c90   Section        0  hdr.o(i.hdr_Init)
    i.hdr_check                              0x08008ca0   Section        0  hdr.o(i.hdr_check)
    i.hdr_open                               0x08008de4   Section        0  hdr.o(i.hdr_open)
    i.hdraction                              0x08008e0c   Section        0  hdr.o(i.hdraction)
    i.i2c_Delay                              0x08008eb8   Section        0  gd62429.o(i.i2c_Delay)
    i2c_Delay                                0x08008eb9   Thumb Code    16  gd62429.o(i.i2c_Delay)
    i.initionNRF                             0x08008ec8   Section        0  xiaomu.o(i.initionNRF)
    i.layer2index                            0x08008eea   Section        0  hdr.o(i.layer2index)
    layer2index                              0x08008eeb   Thumb Code    38  hdr.o(i.layer2index)
    i.mDelay                                 0x08008f10   Section        0  cmos.o(i.mDelay)
    i.main                                   0x08008f28   Section        0  main.o(i.main)
    i.mixchanel                              0x08008f40   Section        0  mix.o(i.mixchanel)
    i.nRF_Check                              0x08008fec   Section        0  nrf24l01.o(i.nRF_Check)
    i.nRF_ClearStatusRegister                0x08009040   Section        0  nrf24l01.o(i.nRF_ClearStatusRegister)
    i.nRF_EXTIcfg                            0x0800904c   Section        0  nrf24l01.o(i.nRF_EXTIcfg)
    i.nRF_FlushRxBuffer                      0x08009098   Section        0  nrf24l01.o(i.nRF_FlushRxBuffer)
    i.nRF_FlushTxBuffer                      0x080090aa   Section        0  nrf24l01.o(i.nRF_FlushTxBuffer)
    i.nRF_GetMessage                         0x080090bc   Section        0  nrf.o(i.nRF_GetMessage)
    i.nRF_GetStatusRegister                  0x080090f4   Section        0  nrf24l01.o(i.nRF_GetStatusRegister)
    i.nRF_IRQHandler                         0x0800910c   Section        0  xiaomu.o(i.nRF_IRQHandler)
    i.nRF_Init                               0x080091a8   Section        0  nrf24l01.o(i.nRF_Init)
    i.nRF_InitReg                            0x080091e0   Section        0  nrf24l01.o(i.nRF_InitReg)
    i.nRF_Initialization                     0x08009244   Section        0  nrf.o(i.nRF_Initialization)
    i.nRF_PowerDown                          0x08009280   Section        0  nrf24l01.o(i.nRF_PowerDown)
    i.nRF_ReadRxBuffer                       0x080092ac   Section        0  nrf24l01.o(i.nRF_ReadRxBuffer)
    i.nRF_ReceiveDataHandler                 0x080092d8   Section        0  xiaomu.o(i.nRF_ReceiveDataHandler)
    i.nRF_RecieveMode                        0x080093f4   Section        0  nrf24l01.o(i.nRF_RecieveMode)
    i.nRF_RegisterReadBuffer                 0x08009418   Section        0  nrf24l01.o(i.nRF_RegisterReadBuffer)
    nRF_RegisterReadBuffer                   0x08009419   Thumb Code    52  nrf24l01.o(i.nRF_RegisterReadBuffer)
    i.nRF_RegisterWriteBuffer                0x0800944c   Section        0  nrf24l01.o(i.nRF_RegisterWriteBuffer)
    nRF_RegisterWriteBuffer                  0x0800944d   Thumb Code    52  nrf24l01.o(i.nRF_RegisterWriteBuffer)
    i.nRF_RegisterWriteByte                  0x08009480   Section        0  nrf24l01.o(i.nRF_RegisterWriteByte)
    i.nRF_SPIRW                              0x080094a4   Section        0  nrf24l01.o(i.nRF_SPIRW)
    nRF_SPIRW                                0x080094a5   Thumb Code    50  nrf24l01.o(i.nRF_SPIRW)
    i.nRF_SPIStart                           0x080094dc   Section        0  nrf24l01.o(i.nRF_SPIStart)
    nRF_SPIStart                             0x080094dd   Thumb Code    14  nrf24l01.o(i.nRF_SPIStart)
    i.nRF_SPIStop                            0x080094f4   Section        0  nrf24l01.o(i.nRF_SPIStop)
    nRF_SPIStop                              0x080094f5   Thumb Code    10  nrf24l01.o(i.nRF_SPIStop)
    i.nRF_SetAddress                         0x08009504   Section        0  nrf.o(i.nRF_SetAddress)
    i.nRF_StandbyMode                        0x08009520   Section        0  nrf24l01.o(i.nRF_StandbyMode)
    i.nRF_TxSendData                         0x0800952c   Section        0  nrf24l01.o(i.nRF_TxSendData)
    i.nRF_TxSetRP1P2                         0x08009550   Section        0  nrf24l01.o(i.nRF_TxSetRP1P2)
    i.nRF_TxSetTXRP0                         0x080095ac   Section        0  nrf24l01.o(i.nRF_TxSetTXRP0)
    i.nRF_WriteTxBuffer                      0x080095d4   Section        0  nrf24l01.o(i.nRF_WriteTxBuffer)
    i.nRF_getAddr                            0x080095fc   Section        0  config.o(i.nRF_getAddr)
    i.nRF_setAddr                            0x08009648   Section        0  config.o(i.nRF_setAddr)
    i.nRF_updateAddr                         0x0800969c   Section        0  config.o(i.nRF_updateAddr)
    i.pcm_Init                               0x08009700   Section        0  pcm.o(i.pcm_Init)
    i.pcm_Init_Shutdown_Pin                  0x080097fc   Section        0  pcm.o(i.pcm_Init_Shutdown_Pin)
    pcm_Init_Shutdown_Pin                    0x080097fd   Thumb Code    50  pcm.o(i.pcm_Init_Shutdown_Pin)
    i.pcm_checkbuf                           0x08009834   Section        0  pcm.o(i.pcm_checkbuf)
    i.pcm_close                              0x08009850   Section        0  pcm.o(i.pcm_close)
    i.pcm_fillbuf                            0x08009888   Section        0  pcm.o(i.pcm_fillbuf)
    i.pcm_open                               0x080098bc   Section        0  pcm.o(i.pcm_open)
    i.play_check                             0x08009924   Section        0  hdr.o(i.play_check)
    i.play_status                            0x080099b0   Section        0  hdr.o(i.play_status)
    i.playbgm                                0x080099ec   Section        0  audio.o(i.playbgm)
    i.poweroff                               0x08009a3c   Section        0  mma7660fc.o(i.poweroff)
    i.poweron                                0x08009a4c   Section        0  mma7660fc.o(i.poweron)
    i.readSlaverID                           0x08009a80   Section        0  config.o(i.readSlaverID)
    i.resetupdate                            0x08009a8c   Section        0  xiaomu.o(i.resetupdate)
    i.send_Init                              0x08009ad8   Section        0  send.o(i.send_Init)
    i.sendservice                            0x08009b08   Section        0  send.o(i.sendservice)
    i.sentencePlay                           0x08009bd4   Section        0  sentence.o(i.sentencePlay)
    sentencePlay                             0x08009bd5   Thumb Code    28  sentence.o(i.sentencePlay)
    i.setLine                                0x08009bf8   Section        0  oneline.o(i.setLine)
    i.set_mode                               0x08009c10   Section        0  singlewireslave.o(i.set_mode)
    set_mode                                 0x08009c11   Thumb Code    44  singlewireslave.o(i.set_mode)
    i.setgname                               0x08009c40   Section        0  config.o(i.setgname)
    i.shutdown                               0x08009cd8   Section        0  xiaomu.o(i.shutdown)
    i.slaver_main                            0x08009cfc   Section        0  xiaomu.o(i.slaver_main)
    i.slaverpowerOff                         0x08009f10   Section        0  xiaomu.o(i.slaverpowerOff)
    i.sndInit                                0x08009f90   Section        0  sentence.o(i.sndInit)
    i.stCheck                                0x0800a02c   Section        0  sentence.o(i.stCheck)
    i.stFillBuf                              0x0800a1a4   Section        0  sentence.o(i.stFillBuf)
    stFillBuf                                0x0800a1a5   Thumb Code    76  sentence.o(i.stFillBuf)
    i.stOpenSentence                         0x0800a204   Section        0  sentence.o(i.stOpenSentence)
    stOpenSentence                           0x0800a205   Thumb Code   104  sentence.o(i.stOpenSentence)
    i.uDelay                                 0x0800a278   Section        0  cmos.o(i.uDelay)
    i.updateend                              0x0800a294   Section        0  xiaomu.o(i.updateend)
    i.updategame                             0x0800a2c4   Section        0  xiaomu.o(i.updategame)
    i.witeproisok                            0x0800a338   Section        0  config.o(i.witeproisok)
    witeproisok                              0x0800a339   Thumb Code    14  config.o(i.witeproisok)
    i.writeconfig                            0x0800a34c   Section        0  config.o(i.writeconfig)
    .constdata                               0x0800a378   Section       60  hardware.o(.constdata)
    .constdata                               0x0800a3b4   Section      176  genginecfg.o(.constdata)
    .data                                    0x20000000   Section        1  stm32f10x_it.o(.data)
    halfmscnt                                0x20000000   Data           1  stm32f10x_it.o(.data)
    .data                                    0x20000004   Section       49  xiaomu.o(.data)
    forcnt                                   0x20000008   Data           4  xiaomu.o(.data)
    ppid                                     0x2000000c   Data           1  xiaomu.o(.data)
    data_pid                                 0x20000024   Data           1  xiaomu.o(.data)
    .data                                    0x20000036   Section        6  usart.o(.data)
    R_RxFIFO                                 0x20000036   Data           6  usart.o(.data)
    .data                                    0x2000003c   Section     4112  display.o(.data)
    displayisinit                            0x2000103d   Data           1  display.o(.data)
    DisplayFLAG                              0x20001040   Data           4  display.o(.data)
    R_ConsoleReg                             0x20001044   Data           8  display.o(.data)
    .data                                    0x2000104c   Section        8  nrf.o(.data)
    .data                                    0x20001054   Section       20  g-sensor.o(.data)
    g_x                                      0x20001054   Data           1  g-sensor.o(.data)
    g_y                                      0x20001055   Data           1  g-sensor.o(.data)
    g_z                                      0x20001056   Data           1  g-sensor.o(.data)
    g_box_x                                  0x20001057   Data           1  g-sensor.o(.data)
    g_box_y                                  0x20001058   Data           1  g-sensor.o(.data)
    g_box_z                                  0x20001059   Data           1  g-sensor.o(.data)
    last_shake_time                          0x2000105c   Data           4  g-sensor.o(.data)
    g_ss                                     0x20001060   Data           8  g-sensor.o(.data)
    .data                                    0x20001068   Section        7  nrf24l01.o(.data)
    .data                                    0x2000106f   Section        1  lcd.o(.data)
    lcdstatu                                 0x2000106f   Data           1  lcd.o(.data)
    .data                                    0x20001070   Section        5  motor.o(.data)
    motor_timer                              0x20001070   Data           4  motor.o(.data)
    MotorFlag                                0x20001074   Data           1  motor.o(.data)
    .data                                    0x20001078   Section      180  mma7660fc.o(.data)
    _x                                       0x20001078   Data           1  mma7660fc.o(.data)
    _y                                       0x20001079   Data           1  mma7660fc.o(.data)
    _z                                       0x2000107a   Data           1  mma7660fc.o(.data)
    _xyz_state                               0x2000107b   Data           1  mma7660fc.o(.data)
    _index                                   0x2000107c   Data           4  mma7660fc.o(.data)
    _g_value                                 0x20001080   Data         132  mma7660fc.o(.data)
    _angle                                   0x20001104   Data          33  mma7660fc.o(.data)
    .data                                    0x2000112c   Section        8  sentence.o(.data)
    st_stStatus                              0x2000112c   Data           2  sentence.o(.data)
    st_voiceIndex                            0x2000112e   Data           1  sentence.o(.data)
    st_varIndex                              0x2000112f   Data           1  sentence.o(.data)
    st_listIndex                             0x20001130   Data           1  sentence.o(.data)
    st_SentenceIndex                         0x20001131   Data           1  sentence.o(.data)
    playplindex                              0x20001132   Data           2  sentence.o(.data)
    .data                                    0x20001134   Section        4  battery.o(.data)
    cache                                    0x20001134   Data           4  battery.o(.data)
    .data                                    0x20001138   Section       34  singlewireslave.o(.data)
    _send_byte                               0x2000114c   Data           1  singlewireslave.o(.data)
    _recv_byte                               0x2000114d   Data           1  singlewireslave.o(.data)
    _last_time                               0x20001150   Data           4  singlewireslave.o(.data)
    _tmp                                     0x20001154   Data           4  singlewireslave.o(.data)
    _count_of_rising_edge                    0x20001158   Data           1  singlewireslave.o(.data)
    _count_of_recv_bit                       0x20001159   Data           1  singlewireslave.o(.data)
    .data                                    0x2000115c   Section        4  send.o(.data)
    mscnt                                    0x2000115c   Data           4  send.o(.data)
    .data                                    0x20001160   Section       20  stm32f10x_rcc.o(.data)
    APBAHBPrescTable                         0x20001160   Data          16  stm32f10x_rcc.o(.data)
    ADCPrescTable                            0x20001170   Data           4  stm32f10x_rcc.o(.data)
    .data                                    0x20001174   Section       12  cmos.o(.data)
    .data                                    0x20001180   Section     4152  audio.o(.data)
    voice                                    0x20001180   Data        2076  audio.o(.data)
    bgm                                      0x2000199c   Data        2076  audio.o(.data)
    .data                                    0x200021b8   Section       24  pcm.o(.data)
    testdata                                 0x200021b8   Data           2  pcm.o(.data)
    pcm_buf1                                 0x200021bc   Data           4  pcm.o(.data)
    pcm_buf2                                 0x200021c0   Data           4  pcm.o(.data)
    pcm_bufp                                 0x200021c4   Data           4  pcm.o(.data)
    pcm_index                                0x200021c8   Data           2  pcm.o(.data)
    pcm_isopen                               0x200021cc   Data           4  pcm.o(.data)
    .data                                    0x200021d0   Section      420  adpcm.o(.data)
    indexTable                               0x200021d0   Data          64  adpcm.o(.data)
    stepsizeTable                            0x20002210   Data         356  adpcm.o(.data)
    .bss                                     0x20002374   Section     8192  xiaomu.o(.bss)
    .bss                                     0x20004374   Section    33152  display.o(.bss)
    g_graphs                                 0x20004374   Data         384  display.o(.bss)
    R_DisplayBuffer                          0x200044f4   Data       32768  display.o(.bss)
    .bss                                     0x2000c4f4   Section       56  file.o(.bss)
    str_data_base                            0x2000c4f4   Data          28  file.o(.bss)
    str_game_base                            0x2000c510   Data          28  file.o(.bss)
    .bss                                     0x2000c52c   Section      480  nrf.o(.bss)
    .bss                                     0x2000c70c   Section       28  config.o(.bss)
    conf                                     0x2000c70c   Data          28  config.o(.bss)
    .bss                                     0x2000c728   Section      400  hdr.o(.bss)
    players                                  0x2000c728   Data         400  hdr.o(.bss)
    .bss                                     0x2000c8b8   Section       90  mma7660fc.o(.bss)
    _x_buf                                   0x2000c8b8   Data          30  mma7660fc.o(.bss)
    _y_buf                                   0x2000c8d6   Data          30  mma7660fc.o(.bss)
    _z_buf                                   0x2000c8f4   Data          30  mma7660fc.o(.bss)
    .bss                                     0x2000c914   Section       72  sentence.o(.bss)
    st_voiceidBuf                            0x2000c914   Data          16  sentence.o(.bss)
    st_varBuf                                0x2000c924   Data          16  sentence.o(.bss)
    st_listBuf                               0x2000c934   Data          16  sentence.o(.bss)
    st_sentenceBuf                           0x2000c944   Data          24  sentence.o(.bss)
    .bss                                     0x2000c95c   Section       60  singlewireslave.o(.bss)
    _recv                                    0x2000c95c   Data          20  singlewireslave.o(.bss)
    _send                                    0x2000c970   Data          20  singlewireslave.o(.bss)
    _recv_buf                                0x2000c984   Data          20  singlewireslave.o(.bss)
    .bss                                     0x2000c998   Section       28  send.o(.bss)
    nearsensor                               0x2000c998   Data          28  send.o(.bss)
    .bss                                     0x2000c9b4   Section     8196  audio.o(.bss)
    mixer                                    0x2000c9b4   Data        8196  audio.o(.bss)
    STACK                                    0x2000e9b8   Section     3072  startup_stm32f10x_hd.o(STACK)

    Global Symbols

    Symbol Name                              Value     Ov Type        Size  Object(Section)

    BuildAttributes$$THM_ISAv4$P$D$K$B$S$PE$A:L22UL41UL21$X:L11$S22US41US21$IEEE1$IW$USESV6$~STKCKD$USESV7$~SHL$OTIME$ROPI$EBA8$MICROLIB$REQ8$PRES8$EABIv2 0x00000000   Number         0  anon$$obj.o ABSOLUTE
    __ARM_use_no_argv                        0x00000000   Number         0  main.o ABSOLUTE
    __cpp_initialize__aeabi_                  - Undefined Weak Reference
    __cxa_finalize                            - Undefined Weak Reference
    _clock_init                               - Undefined Weak Reference
    _microlib_exit                            - Undefined Weak Reference
    __Vectors_Size                           0x00000130   Number         0  startup_stm32f10x_hd.o ABSOLUTE
    __Vectors                                0x08004000   Data           4  startup_stm32f10x_hd.o(RESET)
    __Vectors_End                            0x08004130   Data           0  startup_stm32f10x_hd.o(RESET)
    __main                                   0x08004131   Thumb Code     0  entry.o(.ARM.Collect$$$$00000000)
    _main_stk                                0x08004131   Thumb Code     0  entry2.o(.ARM.Collect$$$$00000001)
    _main_scatterload                        0x08004135   Thumb Code     0  entry5.o(.ARM.Collect$$$$00000004)
    __main_after_scatterload                 0x08004139   Thumb Code     0  entry5.o(.ARM.Collect$$$$00000004)
    _main_clock                              0x08004139   Thumb Code     0  entry7b.o(.ARM.Collect$$$$00000008)
    _main_cpp_init                           0x08004139   Thumb Code     0  entry8b.o(.ARM.Collect$$$$0000000A)
    _main_init                               0x08004139   Thumb Code     0  entry9a.o(.ARM.Collect$$$$0000000B)
    __rt_final_cpp                           0x08004141   Thumb Code     0  entry10a.o(.ARM.Collect$$$$0000000D)
    __rt_final_exit                          0x08004141   Thumb Code     0  entry11a.o(.ARM.Collect$$$$0000000F)
    Reset_Handler                            0x08004145   Thumb Code     8  startup_stm32f10x_hd.o(.text)
    NMI_Handler                              0x0800414d   Thumb Code     2  startup_stm32f10x_hd.o(.text)
    HardFault_Handler                        0x0800414f   Thumb Code     2  startup_stm32f10x_hd.o(.text)
    MemManage_Handler                        0x08004151   Thumb Code     2  startup_stm32f10x_hd.o(.text)
    BusFault_Handler                         0x08004153   Thumb Code     2  startup_stm32f10x_hd.o(.text)
    UsageFault_Handler                       0x08004155   Thumb Code     2  startup_stm32f10x_hd.o(.text)
    SVC_Handler                              0x08004157   Thumb Code     2  startup_stm32f10x_hd.o(.text)
    DebugMon_Handler                         0x08004159   Thumb Code     2  startup_stm32f10x_hd.o(.text)
    PendSV_Handler                           0x0800415b   Thumb Code     2  startup_stm32f10x_hd.o(.text)
    SysTick_Handler                          0x0800415d   Thumb Code     2  startup_stm32f10x_hd.o(.text)
    ADC1_2_IRQHandler                        0x0800415f   Thumb Code     0  startup_stm32f10x_hd.o(.text)
    ADC3_IRQHandler                          0x0800415f   Thumb Code     0  startup_stm32f10x_hd.o(.text)
    CAN1_RX1_IRQHandler                      0x0800415f   Thumb Code     0  startup_stm32f10x_hd.o(.text)
    CAN1_SCE_IRQHandler                      0x0800415f   Thumb Code     0  startup_stm32f10x_hd.o(.text)
    DMA1_Channel1_IRQHandler                 0x0800415f   Thumb Code     0  startup_stm32f10x_hd.o(.text)
    DMA1_Channel2_IRQHandler                 0x0800415f   Thumb Code     0  startup_stm32f10x_hd.o(.text)
    DMA1_Channel3_IRQHandler                 0x0800415f   Thumb Code     0  startup_stm32f10x_hd.o(.text)
    DMA1_Channel4_IRQHandler                 0x0800415f   Thumb Code     0  startup_stm32f10x_hd.o(.text)
    DMA1_Channel5_IRQHandler                 0x0800415f   Thumb Code     0  startup_stm32f10x_hd.o(.text)
    DMA1_Channel6_IRQHandler                 0x0800415f   Thumb Code     0  startup_stm32f10x_hd.o(.text)
    DMA1_Channel7_IRQHandler                 0x0800415f   Thumb Code     0  startup_stm32f10x_hd.o(.text)
    DMA2_Channel1_IRQHandler                 0x0800415f   Thumb Code     0  startup_stm32f10x_hd.o(.text)
    DMA2_Channel2_IRQHandler                 0x0800415f   Thumb Code     0  startup_stm32f10x_hd.o(.text)
    DMA2_Channel3_IRQHandler                 0x0800415f   Thumb Code     0  startup_stm32f10x_hd.o(.text)
    DMA2_Channel4_5_IRQHandler               0x0800415f   Thumb Code     0  startup_stm32f10x_hd.o(.text)
    EXTI1_IRQHandler                         0x0800415f   Thumb Code     0  startup_stm32f10x_hd.o(.text)
    EXTI2_IRQHandler                         0x0800415f   Thumb Code     0  startup_stm32f10x_hd.o(.text)
    EXTI3_IRQHandler                         0x0800415f   Thumb Code     0  startup_stm32f10x_hd.o(.text)
    EXTI4_IRQHandler                         0x0800415f   Thumb Code     0  startup_stm32f10x_hd.o(.text)
    FLASH_IRQHandler                         0x0800415f   Thumb Code     0  startup_stm32f10x_hd.o(.text)
    FSMC_IRQHandler                          0x0800415f   Thumb Code     0  startup_stm32f10x_hd.o(.text)
    I2C1_ER_IRQHandler                       0x0800415f   Thumb Code     0  startup_stm32f10x_hd.o(.text)
    I2C1_EV_IRQHandler                       0x0800415f   Thumb Code     0  startup_stm32f10x_hd.o(.text)
    I2C2_ER_IRQHandler                       0x0800415f   Thumb Code     0  startup_stm32f10x_hd.o(.text)
    I2C2_EV_IRQHandler                       0x0800415f   Thumb Code     0  startup_stm32f10x_hd.o(.text)
    PVD_IRQHandler                           0x0800415f   Thumb Code     0  startup_stm32f10x_hd.o(.text)
    RCC_IRQHandler                           0x0800415f   Thumb Code     0  startup_stm32f10x_hd.o(.text)
    RTCAlarm_IRQHandler                      0x0800415f   Thumb Code     0  startup_stm32f10x_hd.o(.text)
    RTC_IRQHandler                           0x0800415f   Thumb Code     0  startup_stm32f10x_hd.o(.text)
    SDIO_IRQHandler                          0x0800415f   Thumb Code     0  startup_stm32f10x_hd.o(.text)
    SPI1_IRQHandler                          0x0800415f   Thumb Code     0  startup_stm32f10x_hd.o(.text)
    SPI2_IRQHandler                          0x0800415f   Thumb Code     0  startup_stm32f10x_hd.o(.text)
    SPI3_IRQHandler                          0x0800415f   Thumb Code     0  startup_stm32f10x_hd.o(.text)
    TAMPER_IRQHandler                        0x0800415f   Thumb Code     0  startup_stm32f10x_hd.o(.text)
    TIM1_BRK_IRQHandler                      0x0800415f   Thumb Code     0  startup_stm32f10x_hd.o(.text)
    TIM1_CC_IRQHandler                       0x0800415f   Thumb Code     0  startup_stm32f10x_hd.o(.text)
    TIM1_TRG_COM_IRQHandler                  0x0800415f   Thumb Code     0  startup_stm32f10x_hd.o(.text)
    TIM1_UP_IRQHandler                       0x0800415f   Thumb Code     0  startup_stm32f10x_hd.o(.text)
    TIM4_IRQHandler                          0x0800415f   Thumb Code     0  startup_stm32f10x_hd.o(.text)
    TIM5_IRQHandler                          0x0800415f   Thumb Code     0  startup_stm32f10x_hd.o(.text)
    TIM6_IRQHandler                          0x0800415f   Thumb Code     0  startup_stm32f10x_hd.o(.text)
    TIM7_IRQHandler                          0x0800415f   Thumb Code     0  startup_stm32f10x_hd.o(.text)
    TIM8_BRK_IRQHandler                      0x0800415f   Thumb Code     0  startup_stm32f10x_hd.o(.text)
    TIM8_CC_IRQHandler                       0x0800415f   Thumb Code     0  startup_stm32f10x_hd.o(.text)
    TIM8_TRG_COM_IRQHandler                  0x0800415f   Thumb Code     0  startup_stm32f10x_hd.o(.text)
    TIM8_UP_IRQHandler                       0x0800415f   Thumb Code     0  startup_stm32f10x_hd.o(.text)
    UART4_IRQHandler                         0x0800415f   Thumb Code     0  startup_stm32f10x_hd.o(.text)
    UART5_IRQHandler                         0x0800415f   Thumb Code     0  startup_stm32f10x_hd.o(.text)
    USART1_IRQHandler                        0x0800415f   Thumb Code     0  startup_stm32f10x_hd.o(.text)
    USART2_IRQHandler                        0x0800415f   Thumb Code     0  startup_stm32f10x_hd.o(.text)
    USART3_IRQHandler                        0x0800415f   Thumb Code     0  startup_stm32f10x_hd.o(.text)
    USBWakeUp_IRQHandler                     0x0800415f   Thumb Code     0  startup_stm32f10x_hd.o(.text)
    USB_HP_CAN1_TX_IRQHandler                0x0800415f   Thumb Code     0  startup_stm32f10x_hd.o(.text)
    USB_LP_CAN1_RX0_IRQHandler               0x0800415f   Thumb Code     0  startup_stm32f10x_hd.o(.text)
    WWDG_IRQHandler                          0x0800415f   Thumb Code     0  startup_stm32f10x_hd.o(.text)
    SystemReset                              0x08004161   Thumb Code    16  startup_stm32f10x_hd.o(.text)
    __aeabi_memcpy                           0x08004181   Thumb Code    36  memcpya.o(.text)
    __aeabi_memcpy4                          0x08004181   Thumb Code     0  memcpya.o(.text)
    __aeabi_memcpy8                          0x08004181   Thumb Code     0  memcpya.o(.text)
    __aeabi_memset                           0x080041a5   Thumb Code    14  memseta.o(.text)
    __aeabi_memset4                          0x080041a5   Thumb Code     0  memseta.o(.text)
    __aeabi_memset8                          0x080041a5   Thumb Code     0  memseta.o(.text)
    __aeabi_memclr                           0x080041b3   Thumb Code     4  memseta.o(.text)
    __aeabi_memclr4                          0x080041b3   Thumb Code     0  memseta.o(.text)
    __aeabi_memclr8                          0x080041b3   Thumb Code     0  memseta.o(.text)
    _memset$wrapper                          0x080041b7   Thumb Code    18  memseta.o(.text)
    __aeabi_dmul                             0x080041c9   Thumb Code   228  dmul.o(.text)
    __aeabi_i2d                              0x080042ad   Thumb Code    34  dflti.o(.text)
    __aeabi_d2uiz                            0x080042cf   Thumb Code    50  dfixui.o(.text)
    __aeabi_llsl                             0x08004301   Thumb Code    30  llshl.o(.text)
    _ll_shift_l                              0x08004301   Thumb Code     0  llshl.o(.text)
    __aeabi_llsr                             0x0800431f   Thumb Code    32  llushr.o(.text)
    _ll_ushift_r                             0x0800431f   Thumb Code     0  llushr.o(.text)
    __I$use$fp                               0x0800433f   Thumb Code     0  iusefp.o(.text)
    _double_round                            0x0800433f   Thumb Code    26  depilogue.o(.text)
    _double_epilogue                         0x08004359   Thumb Code   164  depilogue.o(.text)
    __scatterload                            0x080043fd   Thumb Code    28  init.o(.text)
    __scatterload_rt2                        0x080043fd   Thumb Code     0  init.o(.text)
    __decompress                             0x08004421   Thumb Code     0  __dczerorl2.o(.text)
    __decompress1                            0x08004421   Thumb Code    92  __dczerorl2.o(.text)
    ADC_Cmd                                  0x0800447d   Thumb Code    22  stm32f10x_adc.o(i.ADC_Cmd)
    ADC_GetCalibrationStatus                 0x08004493   Thumb Code    20  stm32f10x_adc.o(i.ADC_GetCalibrationStatus)
    ADC_GetConversionValue                   0x080044a7   Thumb Code     8  stm32f10x_adc.o(i.ADC_GetConversionValue)
    ADC_GetResetCalibrationStatus            0x080044af   Thumb Code    20  stm32f10x_adc.o(i.ADC_GetResetCalibrationStatus)
    ADC_Init                                 0x080044c5   Thumb Code    70  stm32f10x_adc.o(i.ADC_Init)
    ADC_RegularChannelConfig                 0x08004515   Thumb Code   184  stm32f10x_adc.o(i.ADC_RegularChannelConfig)
    ADC_ResetCalibration                     0x080045cd   Thumb Code    10  stm32f10x_adc.o(i.ADC_ResetCalibration)
    ADC_SoftwareStartConvCmd                 0x080045d7   Thumb Code    22  stm32f10x_adc.o(i.ADC_SoftwareStartConvCmd)
    ADC_StartCalibration                     0x080045ed   Thumb Code    10  stm32f10x_adc.o(i.ADC_StartCalibration)
    AddGraph                                 0x080045f9   Thumb Code    78  display.o(i.AddGraph)
    Bat_GetAD                                0x0800464d   Thumb Code    10  battery.o(i.Bat_GetAD)
    Bat_GetChargeState                       0x0800465d   Thumb Code    20  battery.o(i.Bat_GetChargeState)
    Bat_GetStandbyState                      0x08004675   Thumb Code    20  battery.o(i.Bat_GetStandbyState)
    Bat_Init                                 0x0800468d   Thumb Code   206  battery.o(i.Bat_Init)
    Bat_IsChargForSlave                      0x08004769   Thumb Code    46  battery.o(i.Bat_IsChargForSlave)
    Bat_IsCharging                           0x080047a1   Thumb Code    28  battery.o(i.Bat_IsCharging)
    CMOS_GetTimer                            0x080047bd   Thumb Code     6  cmos.o(i.CMOS_GetTimer)
    CMOS_GetTimerCount                       0x080047c9   Thumb Code    10  cmos.o(i.CMOS_GetTimerCount)
    CMOS_Initialization                      0x080047e5   Thumb Code    26  cmos.o(i.CMOS_Initialization)
    CMOS_TimerProcess                        0x080048d1   Thumb Code    12  cmos.o(i.CMOS_TimerProcess)
    CRC_CalcBlockCRC                         0x080048e1   Thumb Code    32  stm32f10x_crc.o(i.CRC_CalcBlockCRC)
    CRC_GetCRC                               0x08004905   Thumb Code     6  stm32f10x_crc.o(i.CRC_GetCRC)
    CRC_MCU                                  0x08004911   Thumb Code    30  hardware.o(i.CRC_MCU)
    CRC_ResetDR                              0x08004931   Thumb Code     8  stm32f10x_crc.o(i.CRC_ResetDR)
    CRC_SPI                                  0x0800493d   Thumb Code    62  hardware.o(i.CRC_SPI)
    CheckAutoPowerOff                        0x0800497d   Thumb Code    42  cmos.o(i.CheckAutoPowerOff)
    ClearGraphLayer                          0x080049b1   Thumb Code    36  display.o(i.ClearGraphLayer)
    ClearScreen                              0x080049d9   Thumb Code    12  display.o(i.ClearScreen)
    ClrAutoPowerOff                          0x080049e5   Thumb Code    16  cmos.o(i.ClrAutoPowerOff)
    Console_Open                             0x08004a01   Thumb Code    48  display.o(i.Console_Open)
    DBGMCU_Config                            0x08004a35   Thumb Code    26  stm32f10x_dbgmcu.o(i.DBGMCU_Config)
    Display_CheckUpdate                      0x08004a79   Thumb Code    34  display.o(i.Display_CheckUpdate)
    Display_Initialization                   0x08004aa1   Thumb Code    70  display.o(i.Display_Initialization)
    EXTI0_IRQHandler                         0x08004af5   Thumb Code   310  mma7660fc.o(i.EXTI0_IRQHandler)
    EXTI15_10_IRQHandler                     0x08004c51   Thumb Code   292  singlewireslave.o(i.EXTI15_10_IRQHandler)
    EXTI9_5_IRQHandler                       0x08004d99   Thumb Code    84  nrf24l01.o(i.EXTI9_5_IRQHandler)
    EXTI_ClearITPendingBit                   0x08004df9   Thumb Code     6  stm32f10x_exti.o(i.EXTI_ClearITPendingBit)
    EXTI_GetITStatus                         0x08004e05   Thumb Code    34  stm32f10x_exti.o(i.EXTI_GetITStatus)
    EXTI_Init                                0x08004e2d   Thumb Code   142  stm32f10x_exti.o(i.EXTI_Init)
    FIFO_GetPopIndex                         0x08004ec1   Thumb Code    64  cmlib.o(i.FIFO_GetPopIndex)
    FIFO_GetPushIndex                        0x08004f01   Thumb Code    40  cmlib.o(i.FIFO_GetPushIndex)
    FIFO_Init                                0x08004f29   Thumb Code    16  cmlib.o(i.FIFO_Init)
    FIFO_Reset                               0x08004f39   Thumb Code     8  cmlib.o(i.FIFO_Reset)
    FLASH_PrefetchBufferCmd                  0x08004f41   Thumb Code    22  stm32f10x_flash.o(i.FLASH_PrefetchBufferCmd)
    FLASH_SetLatency                         0x08004f5d   Thumb Code    18  stm32f10x_flash.o(i.FLASH_SetLatency)
    File_GetGraphInfo                        0x08005299   Thumb Code   180  file.o(i.File_GetGraphInfo)
    File_GetGraphSum                         0x0800534d   Thumb Code    16  file.o(i.File_GetGraphSum)
    File_Read                                0x0800535d   Thumb Code    20  file.o(i.File_Read)
    File_SetBaseAddr                         0x08005371   Thumb Code    76  file.o(i.File_SetBaseAddr)
    Flash_4K_Erase                           0x080053c5   Thumb Code    50  flash.o(i.Flash_4K_Erase)
    Flash_4K_Erase_Start                     0x080053f7   Thumb Code    46  flash.o(i.Flash_4K_Erase_Start)
    Flash_Init                               0x08005425   Thumb Code   102  flash.o(i.Flash_Init)
    Flash_Read                               0x08005499   Thumb Code   108  flash.o(i.Flash_Read)
    Flash_Read_Status_Reg                    0x08005509   Thumb Code    60  flash.o(i.Flash_Read_Status_Reg)
    Flash_Write                              0x08005593   Thumb Code   134  flash.o(i.Flash_Write)
    Flash_Write_Page                         0x0800562b   Thumb Code    78  flash.o(i.Flash_Write_Page)
    Flash_Write_Status_Reg                   0x08005679   Thumb Code    60  flash.o(i.Flash_Write_Status_Reg)
    FrushDspBuffer                           0x080056b5   Thumb Code    60  display.o(i.FrushDspBuffer)
    FrushRectangle                           0x080056f5   Thumb Code    52  display.o(i.FrushRectangle)
    GD62429_GPIO_Init                        0x0800572d   Thumb Code    80  gd62429.o(i.GD62429_GPIO_Init)
    GD_I2C_W                                 0x08005781   Thumb Code   114  gd62429.o(i.GD_I2C_W)
    GEA_AddAnimation                         0x080057f9   Thumb Code   180  hdr.o(i.GEA_AddAnimation)
    GEA_ClePutRef                            0x080058b1   Thumb Code    76  slaverapis2.o(i.GEA_ClePutRef)
    GEA_ClearAnimationFifo                   0x080058fd   Thumb Code    72  hdr.o(i.GEA_ClearAnimationFifo)
    GEA_ClearLayer                           0x08005945   Thumb Code    34  slaverapis2.o(i.GEA_ClearLayer)
    GEA_DeleteAnimation                      0x08005967   Thumb Code    72  hdr.o(i.GEA_DeleteAnimation)
    GEA_GetGName                             0x080059af   Thumb Code    16  config.o(i.GEA_GetGName)
    GEA_GetJoyStickStatus                    0x080059c1   Thumb Code   186  slaverapis2.o(i.GEA_GetJoyStickStatus)
    GEA_GetNearStatus                        0x08005a81   Thumb Code    28  send.o(i.GEA_GetNearStatus)
    GEA_GetSpeechStatus                      0x08005aa1   Thumb Code    54  sentence.o(i.GEA_GetSpeechStatus)
    GEA_LoopSpeech                           0x08005add   Thumb Code    30  sentence.o(i.GEA_LoopSpeech)
    GEA_MotorCtrl                            0x08005afd   Thumb Code    56  motor.o(i.GEA_MotorCtrl)
    GEA_PlayAnimation                        0x08005b39   Thumb Code    28  hdr.o(i.GEA_PlayAnimation)
    GEA_PlaySpeech                           0x08005b55   Thumb Code    76  sentence.o(i.GEA_PlaySpeech)
    GEA_PowerOff                             0x08005bad   Thumb Code    10  xiaomu.o(i.GEA_PowerOff)
    GEA_PutGraph                             0x08005bb7   Thumb Code    68  slaverapis2.o(i.GEA_PutGraph)
    GEA_SetGName                             0x08005bfb   Thumb Code    14  config.o(i.GEA_SetGName)
    GEA_SetMode                              0x08005c09   Thumb Code   106  slaverapis2.o(i.GEA_SetMode)
    GEA_SetSpeechList                        0x08005c79   Thumb Code    90  sentence.o(i.GEA_SetSpeechList)
    GEA_SetTimCnt                            0x08005cdd   Thumb Code    20  cmos.o(i.GEA_SetTimCnt)
    GEA_SlaverState                          0x08005cf5   Thumb Code    34  slaverapis2.o(i.GEA_SlaverState)
    GEA_StopAnimation                        0x08005d1d   Thumb Code    72  hdr.o(i.GEA_StopAnimation)
    GEA_StopSpeech                           0x08005d65   Thumb Code    38  sentence.o(i.GEA_StopSpeech)
    GEA_Transport                            0x08005da1   Thumb Code    10  xiaomu.o(i.GEA_Transport)
    GPIO_EXTILineConfig                      0x08005dad   Thumb Code    60  stm32f10x_gpio.o(i.GPIO_EXTILineConfig)
    GPIO_Init                                0x08005ded   Thumb Code   274  stm32f10x_gpio.o(i.GPIO_Init)
    GPIO_PinRemapConfig                      0x08005f01   Thumb Code   138  stm32f10x_gpio.o(i.GPIO_PinRemapConfig)
    GPIO_ReadInputDataBit                    0x08005f91   Thumb Code    18  stm32f10x_gpio.o(i.GPIO_ReadInputDataBit)
    GPIO_ResetBits                           0x08005fa3   Thumb Code     4  stm32f10x_gpio.o(i.GPIO_ResetBits)
    GPIO_SetBits                             0x08005fa7   Thumb Code     4  stm32f10x_gpio.o(i.GPIO_SetBits)
    GPIO_WriteBit                            0x08005fab   Thumb Code    10  stm32f10x_gpio.o(i.GPIO_WriteBit)
    G_CallFuntion                            0x08005fb5   Thumb Code    44  xiaomu.o(i.G_CallFuntion)
    GetResourceAddr                          0x08005fe5   Thumb Code    84  file.o(i.GetResourceAddr)
    GetResourceData                          0x08006041   Thumb Code    22  file.o(i.GetResourceData)
    GetResourceDataP                         0x08006057   Thumb Code    34  file.o(i.GetResourceDataP)
    GetResourceItemAddr                      0x08006079   Thumb Code    42  file.o(i.GetResourceItemAddr)
    GetResourceItemNum                       0x080060a3   Thumb Code    30  file.o(i.GetResourceItemNum)
    Get_Box_XYZ                              0x080061b3   Thumb Code   560  g-sensor.o(i.Get_Box_XYZ)
    IWDG_Enable                              0x08006545   Thumb Code    10  stm32f10x_iwdg.o(i.IWDG_Enable)
    IWDG_ReloadCounter                       0x08006555   Thumb Code    10  stm32f10x_iwdg.o(i.IWDG_ReloadCounter)
    IWDG_SetPrescaler                        0x08006565   Thumb Code     6  stm32f10x_iwdg.o(i.IWDG_SetPrescaler)
    IWDG_SetReload                           0x08006571   Thumb Code     6  stm32f10x_iwdg.o(i.IWDG_SetReload)
    IWDG_WriteAccessCmd                      0x0800657d   Thumb Code     6  stm32f10x_iwdg.o(i.IWDG_WriteAccessCmd)
    InitConfig                               0x08006589   Thumb Code   108  config.o(i.InitConfig)
    IsVoiceBusy                              0x080065f9   Thumb Code    10  audio.o(i.IsVoiceBusy)
    Lcd_Init                                 0x08006655   Thumb Code    36  lcd.o(i.Lcd_Init)
    Lcd_Off                                  0x08006679   Thumb Code    26  lcd.o(i.Lcd_Off)
    Lcd_On                                   0x0800669d   Thumb Code    38  lcd.o(i.Lcd_On)
    Lcd_RefreshScreen                        0x080066c9   Thumb Code    30  lcd.o(i.Lcd_RefreshScreen)
    Lcd_Set_Window                           0x08006709   Thumb Code    84  lcd.o(i.Lcd_Set_Window)
    Lcd_Write_Buf                            0x0800675d   Thumb Code    98  lcd.o(i.Lcd_Write_Buf)
    Lcd_Write_Cmd                            0x080067c5   Thumb Code    40  lcd.o(i.Lcd_Write_Cmd)
    Lcd_Write_Param                          0x080067f1   Thumb Code    40  lcd.o(i.Lcd_Write_Param)
    Lcd_initOn                               0x0800681d   Thumb Code    22  lcd.o(i.Lcd_initOn)
    MMA7660FC_GetShakeState                  0x080068a5   Thumb Code   114  mma7660fc.o(i.MMA7660FC_GetShakeState)
    MMA7660FC_Init                           0x0800696d   Thumb Code   164  mma7660fc.o(i.MMA7660FC_Init)
    MMA7660FC_Standby                        0x08006a25   Thumb Code    26  mma7660fc.o(i.MMA7660FC_Standby)
    MMA7660FC_To_Angle                       0x08006a41   Thumb Code    24  mma7660fc.o(i.MMA7660FC_To_Angle)
    MMA7660FC_XYZ                            0x08006a5d   Thumb Code    66  mma7660fc.o(i.MMA7660FC_XYZ)
    Motor_Check                              0x08006ab1   Thumb Code    26  motor.o(i.Motor_Check)
    Motor_Init                               0x08006ad1   Thumb Code    44  motor.o(i.Motor_Init)
    Motor_Off                                0x08006b01   Thumb Code    16  motor.o(i.Motor_Off)
    Motor_On                                 0x08006b19   Thumb Code    14  motor.o(i.Motor_On)
    NVIC_Init                                0x08006b31   Thumb Code   102  misc.o(i.NVIC_Init)
    NVIC_PriorityGroupConfig                 0x08006ba5   Thumb Code    10  misc.o(i.NVIC_PriorityGroupConfig)
    ONELINE_Init                             0x08006bf5   Thumb Code    94  oneline.o(i.ONELINE_Init)
    PlayVoice                                0x08006c61   Thumb Code   112  audio.o(i.PlayVoice)
    PutChar                                  0x08006cd5   Thumb Code    20  display.o(i.PutChar)
    PutGraph                                 0x08006d75   Thumb Code   576  display.o(i.PutGraph)
    PutHex                                   0x08006fb9   Thumb Code    70  display.o(i.PutHex)
    PutHexBlock                              0x08006fff   Thumb Code    68  display.o(i.PutHexBlock)
    PutString                                0x08007043   Thumb Code    44  display.o(i.PutString)
    RCC_ADCCLKConfig                         0x08007071   Thumb Code    18  stm32f10x_rcc.o(i.RCC_ADCCLKConfig)
    RCC_APB1PeriphClockCmd                   0x08007089   Thumb Code    26  stm32f10x_rcc.o(i.RCC_APB1PeriphClockCmd)
    RCC_APB1PeriphResetCmd                   0x080070a9   Thumb Code    26  stm32f10x_rcc.o(i.RCC_APB1PeriphResetCmd)
    RCC_APB2PeriphClockCmd                   0x080070c9   Thumb Code    26  stm32f10x_rcc.o(i.RCC_APB2PeriphClockCmd)
    RCC_APB2PeriphResetCmd                   0x080070e9   Thumb Code    26  stm32f10x_rcc.o(i.RCC_APB2PeriphResetCmd)
    RCC_DeInit                               0x08007109   Thumb Code    64  stm32f10x_rcc.o(i.RCC_DeInit)
    RCC_GetClocksFreq                        0x08007155   Thumb Code   192  stm32f10x_rcc.o(i.RCC_GetClocksFreq)
    RCC_GetFlagStatus                        0x08007229   Thumb Code    56  stm32f10x_rcc.o(i.RCC_GetFlagStatus)
    RCC_GetSYSCLKSource                      0x08007265   Thumb Code    10  stm32f10x_rcc.o(i.RCC_GetSYSCLKSource)
    RCC_HCLKConfig                           0x08007275   Thumb Code    18  stm32f10x_rcc.o(i.RCC_HCLKConfig)
    RCC_HSEConfig                            0x0800728d   Thumb Code    70  stm32f10x_rcc.o(i.RCC_HSEConfig)
    RCC_PCLK1Config                          0x080072d9   Thumb Code    18  stm32f10x_rcc.o(i.RCC_PCLK1Config)
    RCC_PCLK2Config                          0x080072f1   Thumb Code    20  stm32f10x_rcc.o(i.RCC_PCLK2Config)
    RCC_PLLCmd                               0x08007309   Thumb Code     6  stm32f10x_rcc.o(i.RCC_PLLCmd)
    RCC_PLLConfig                            0x08007315   Thumb Code    24  stm32f10x_rcc.o(i.RCC_PLLConfig)
    RCC_SYSCLKConfig                         0x08007331   Thumb Code    18  stm32f10x_rcc.o(i.RCC_SYSCLKConfig)
    RCC_WaitForHSEStartUp                    0x08007349   Thumb Code    56  stm32f10x_rcc.o(i.RCC_WaitForHSEStartUp)
    RGB2Y                                    0x08007381   Thumb Code    84  display.o(i.RGB2Y)
    RGBtosixteen                             0x080073d9   Thumb Code    52  display.o(i.RGBtosixteen)
    RS_Init                                  0x080074d1   Thumb Code    16  usart.o(i.RS_Init)
    RefreshGraphs                            0x08007559   Thumb Code    86  display.o(i.RefreshGraphs)
    RefreshScreen                            0x080075b5   Thumb Code    30  display.o(i.RefreshScreen)
    ResetRecieveMode                         0x080075dd   Thumb Code    18  nrf24l01.o(i.ResetRecieveMode)
    Resetproisok                             0x080075ef   Thumb Code    12  config.o(i.Resetproisok)
    SPI_Cmd                                  0x0800763d   Thumb Code    24  stm32f10x_spi.o(i.SPI_Cmd)
    SPI_I2S_ClearFlag                        0x08007655   Thumb Code     6  stm32f10x_spi.o(i.SPI_I2S_ClearFlag)
    SPI_I2S_GetFlagStatus                    0x0800765b   Thumb Code    18  stm32f10x_spi.o(i.SPI_I2S_GetFlagStatus)
    SPI_I2S_ReceiveData                      0x0800766d   Thumb Code     6  stm32f10x_spi.o(i.SPI_I2S_ReceiveData)
    SPI_I2S_SendData                         0x08007673   Thumb Code     4  stm32f10x_spi.o(i.SPI_I2S_SendData)
    SPI_Init                                 0x08007677   Thumb Code    60  stm32f10x_spi.o(i.SPI_Init)
    SPI_NRF_Init                             0x080076b5   Thumb Code   218  nrf24l01.o(i.SPI_NRF_Init)
    SWS_BytesToRead                          0x080077a1   Thumb Code     6  singlewireslave.o(i.SWS_BytesToRead)
    SWS_Init                                 0x080077ad   Thumb Code   160  singlewireslave.o(i.SWS_Init)
    SWS_ReadBytes                            0x08007871   Thumb Code    18  singlewireslave.o(i.SWS_ReadBytes)
    SWS_SendBytes                            0x08007889   Thumb Code    58  singlewireslave.o(i.SWS_SendBytes)
    SWS_getBytes                             0x080078cd   Thumb Code    52  singlewireslave.o(i.SWS_getBytes)
    SendMessage                              0x08007ae5   Thumb Code    52  nrf24l01.o(i.SendMessage)
    SetDisplayUpdate                         0x08007b1d   Thumb Code    14  display.o(i.SetDisplayUpdate)
    StopBGM                                  0x08007c15   Thumb Code     8  audio.o(i.StopBGM)
    StopVoice                                0x08007c21   Thumb Code     8  audio.o(i.StopVoice)
    SystemInit                               0x08007c2d   Thumb Code    78  system_stm32f10x.o(i.SystemInit)
    TIM2_IRQHandler                          0x08007c8d   Thumb Code    52  stm32f10x_it.o(i.TIM2_IRQHandler)
    TIM3_IRQHandler                          0x08007cc5   Thumb Code   236  pcm.o(i.TIM3_IRQHandler)
    TIM_ClearFlag                            0x08007dd5   Thumb Code     6  stm32f10x_tim.o(i.TIM_ClearFlag)
    TIM_ClearITPendingBit                    0x08007ddb   Thumb Code     6  stm32f10x_tim.o(i.TIM_ClearITPendingBit)
    TIM_Cmd                                  0x08007de1   Thumb Code    24  stm32f10x_tim.o(i.TIM_Cmd)
    TIM_DeInit                               0x08007df9   Thumb Code   424  stm32f10x_tim.o(i.TIM_DeInit)
    TIM_GetITStatus                          0x08007fe1   Thumb Code    34  stm32f10x_tim.o(i.TIM_GetITStatus)
    TIM_ITConfig                             0x08008003   Thumb Code    18  stm32f10x_tim.o(i.TIM_ITConfig)
    TIM_TimeBaseInit                         0x08008015   Thumb Code   122  stm32f10x_tim.o(i.TIM_TimeBaseInit)
    USART_Cmd                                0x080080b9   Thumb Code    24  stm32f10x_usart.o(i.USART_Cmd)
    USART_ITConfig                           0x080080d1   Thumb Code    74  stm32f10x_usart.o(i.USART_ITConfig)
    USART_Init                               0x0800811d   Thumb Code   210  stm32f10x_usart.o(i.USART_Init)
    WriteSlaverID                            0x080081f5   Thumb Code    14  config.o(i.WriteSlaverID)
    _PlayBGM                                 0x0800822d   Thumb Code   114  audio.o(i._PlayBGM)
    __scatterload_copy                       0x080082a5   Thumb Code    14  handlers.o(i.__scatterload_copy)
    __scatterload_null                       0x080082b3   Thumb Code     2  handlers.o(i.__scatterload_null)
    __scatterload_zeroinit                   0x080082b5   Thumb Code    14  handlers.o(i.__scatterload_zeroinit)
    adpcm_decoder                            0x080082c5   Thumb Code   202  adpcm.o(i.adpcm_decoder)
    audio_Init                               0x0800839d   Thumb Code    18  audio.o(i.audio_Init)
    audio_checkmsg                           0x080083b9   Thumb Code   120  audio.o(i.audio_checkmsg)
    ccopy                                    0x08008441   Thumb Code    60  cmlib.o(i.ccopy)
    chanel_fillbuf                           0x0800847d   Thumb Code   274  chanel.o(i.chanel_fillbuf)
    checkpower                               0x08008591   Thumb Code   408  xiaomu.o(i.checkpower)
    decode                                   0x08008761   Thumb Code    32  decode.o(i.decode)
    gSensor_Box_X_Angle                      0x08008831   Thumb Code    14  g-sensor.o(i.gSensor_Box_X_Angle)
    gSensor_Box_Y_Angle                      0x08008845   Thumb Code    14  g-sensor.o(i.gSensor_Box_Y_Angle)
    gSensor_Box_Z_Angle                      0x08008859   Thumb Code    14  g-sensor.o(i.gSensor_Box_Z_Angle)
    gSensor_Init                             0x0800886d   Thumb Code     8  g-sensor.o(i.gSensor_Init)
    gSensor_TopSurface                       0x08008875   Thumb Code   166  g-sensor.o(i.gSensor_TopSurface)
    gSensor_Update                           0x08008929   Thumb Code    60  g-sensor.o(i.gSensor_Update)
    gSensor_WaveRank                         0x08008981   Thumb Code    44  g-sensor.o(i.gSensor_WaveRank)
    getConfig                                0x080089b5   Thumb Code     4  config.o(i.getConfig)
    getMotorFlag                             0x080089bd   Thumb Code     6  motor.o(i.getMotorFlag)
    getgname                                 0x080089c9   Thumb Code   130  config.o(i.getgname)
    hardware_main                            0x08008a4d   Thumb Code   548  hardware.o(i.hardware_main)
    hdr_Init                                 0x08008c91   Thumb Code    16  hdr.o(i.hdr_Init)
    hdr_check                                0x08008ca1   Thumb Code   324  hdr.o(i.hdr_check)
    hdr_open                                 0x08008de5   Thumb Code    38  hdr.o(i.hdr_open)
    hdraction                                0x08008e0d   Thumb Code   168  hdr.o(i.hdraction)
    initionNRF                               0x08008ec9   Thumb Code    34  xiaomu.o(i.initionNRF)
    mDelay                                   0x08008f11   Thumb Code    18  cmos.o(i.mDelay)
    main                                     0x08008f29   Thumb Code    16  main.o(i.main)
    mixchanel                                0x08008f41   Thumb Code   166  mix.o(i.mixchanel)
    nRF_Check                                0x08008fed   Thumb Code    74  nrf24l01.o(i.nRF_Check)
    nRF_ClearStatusRegister                  0x08009041   Thumb Code    12  nrf24l01.o(i.nRF_ClearStatusRegister)
    nRF_EXTIcfg                              0x0800904d   Thumb Code    76  nrf24l01.o(i.nRF_EXTIcfg)
    nRF_FlushRxBuffer                        0x08009099   Thumb Code    18  nrf24l01.o(i.nRF_FlushRxBuffer)
    nRF_FlushTxBuffer                        0x080090ab   Thumb Code    18  nrf24l01.o(i.nRF_FlushTxBuffer)
    nRF_GetMessage                           0x080090bd   Thumb Code    46  nrf.o(i.nRF_GetMessage)
    nRF_GetStatusRegister                    0x080090f5   Thumb Code    22  nrf24l01.o(i.nRF_GetStatusRegister)
    nRF_IRQHandler                           0x0800910d   Thumb Code   136  xiaomu.o(i.nRF_IRQHandler)
    nRF_Init                                 0x080091a9   Thumb Code    42  nrf24l01.o(i.nRF_Init)
    nRF_InitReg                              0x080091e1   Thumb Code    82  nrf24l01.o(i.nRF_InitReg)
    nRF_Initialization                       0x08009245   Thumb Code    40  nrf.o(i.nRF_Initialization)
    nRF_PowerDown                            0x08009281   Thumb Code    38  nrf24l01.o(i.nRF_PowerDown)
    nRF_ReadRxBuffer                         0x080092ad   Thumb Code    42  nrf24l01.o(i.nRF_ReadRxBuffer)
    nRF_ReceiveDataHandler                   0x080092d9   Thumb Code   262  xiaomu.o(i.nRF_ReceiveDataHandler)
    nRF_RecieveMode                          0x080093f5   Thumb Code    30  nrf24l01.o(i.nRF_RecieveMode)
    nRF_RegisterWriteByte                    0x08009481   Thumb Code    34  nrf24l01.o(i.nRF_RegisterWriteByte)
    nRF_SetAddress                           0x08009505   Thumb Code    22  nrf.o(i.nRF_SetAddress)
    nRF_StandbyMode                          0x08009521   Thumb Code     8  nrf24l01.o(i.nRF_StandbyMode)
    nRF_TxSendData                           0x0800952d   Thumb Code    30  nrf24l01.o(i.nRF_TxSendData)
    nRF_TxSetRP1P2                           0x08009551   Thumb Code    78  nrf24l01.o(i.nRF_TxSetRP1P2)
    nRF_TxSetTXRP0                           0x080095ad   Thumb Code    36  nrf24l01.o(i.nRF_TxSetTXRP0)
    nRF_WriteTxBuffer                        0x080095d5   Thumb Code    40  nrf24l01.o(i.nRF_WriteTxBuffer)
    nRF_getAddr                              0x080095fd   Thumb Code    72  config.o(i.nRF_getAddr)
    nRF_setAddr                              0x08009649   Thumb Code    80  config.o(i.nRF_setAddr)
    nRF_updateAddr                           0x0800969d   Thumb Code    78  config.o(i.nRF_updateAddr)
    pcm_Init                                 0x08009701   Thumb Code   218  pcm.o(i.pcm_Init)
    pcm_checkbuf                             0x08009835   Thumb Code    20  pcm.o(i.pcm_checkbuf)
    pcm_close                                0x08009851   Thumb Code    40  pcm.o(i.pcm_close)
    pcm_fillbuf                              0x08009889   Thumb Code    40  pcm.o(i.pcm_fillbuf)
    pcm_open                                 0x080098bd   Thumb Code    82  pcm.o(i.pcm_open)
    play_check                               0x08009925   Thumb Code   136  hdr.o(i.play_check)
    play_status                              0x080099b1   Thumb Code    56  hdr.o(i.play_status)
    playbgm                                  0x080099ed   Thumb Code    80  audio.o(i.playbgm)
    poweroff                                 0x08009a3d   Thumb Code    10  mma7660fc.o(i.poweroff)
    poweron                                  0x08009a4d   Thumb Code    48  mma7660fc.o(i.poweron)
    readSlaverID                             0x08009a81   Thumb Code     6  config.o(i.readSlaverID)
    resetupdate                              0x08009a8d   Thumb Code    46  xiaomu.o(i.resetupdate)
    send_Init                                0x08009ad9   Thumb Code    42  send.o(i.send_Init)
    sendservice                              0x08009b09   Thumb Code   196  send.o(i.sendservice)
    setLine                                  0x08009bf9   Thumb Code    18  oneline.o(i.setLine)
    setgname                                 0x08009c41   Thumb Code   152  config.o(i.setgname)
    shutdown                                 0x08009cd9   Thumb Code    36  xiaomu.o(i.shutdown)
    slaver_main                              0x08009cfd   Thumb Code   490  xiaomu.o(i.slaver_main)
    slaverpowerOff                           0x08009f11   Thumb Code   126  xiaomu.o(i.slaverpowerOff)
    sndInit                                  0x08009f91   Thumb Code   118  sentence.o(i.sndInit)
    stCheck                                  0x0800a02d   Thumb Code   338  sentence.o(i.stCheck)
    uDelay                                   0x0800a279   Thumb Code    26  cmos.o(i.uDelay)
    updateend                                0x0800a295   Thumb Code    38  xiaomu.o(i.updateend)
    updategame                               0x0800a2c5   Thumb Code   100  xiaomu.o(i.updategame)
    writeconfig                              0x0800a34d   Thumb Code    42  config.o(i.writeconfig)
    TB_GE_MsgApiInfo                         0x0800a3b4   Data         176  genginecfg.o(.constdata)
    Region$$Table$$Base                      0x0800a464   Number         0  anon$$obj.o(Region$$Table)
    Region$$Table$$Limit                     0x0800a484   Number         0  anon$$obj.o(Region$$Table)
    powerisfull                              0x20000004   Data           1  xiaomu.o(.data)
    isBatCharging                            0x20000005   Data           1  xiaomu.o(.data)
    readIndex                                0x20000010   Data           4  xiaomu.o(.data)
    writeIndex                               0x20000014   Data           4  xiaomu.o(.data)
    dataIndex                                0x20000018   Data           4  xiaomu.o(.data)
    downloadgamedataAddr                     0x2000001c   Data           4  xiaomu.o(.data)
    Eraseed                                  0x20000020   Data           4  xiaomu.o(.data)
    statusreg                                0x20000028   Data           4  xiaomu.o(.data)
    powersum                                 0x2000002c   Data           4  xiaomu.o(.data)
    powervalue                               0x20000030   Data           4  xiaomu.o(.data)
    powerLevel                               0x20000034   Data           1  xiaomu.o(.data)
    TB_ASCII8X16                             0x2000003c   Data        4097  display.o(.data)
    R_nRF_IrqCheck                           0x2000104c   Data           1  nrf.o(.data)
    R_nRF_Fifo                               0x2000104e   Data           6  nrf.o(.data)
    R_nRF_Addr                               0x20001068   Data           5  nrf24l01.o(.data)
    R_EN_AA                                  0x2000106d   Data           1  nrf24l01.o(.data)
    R_EN_RXADDR                              0x2000106e   Data           1  nrf24l01.o(.data)
    rockcnt                                  0x20001128   Data           4  mma7660fc.o(.data)
    _send_buf                                0x20001138   Data          20  singlewireslave.o(.data)
    r_OS_TimerCount                          0x20001174   Data           4  cmos.o(.data)
    AutoPowerOffCnt                          0x20001178   Data           4  cmos.o(.data)
    BkAutoPowerOff                           0x2000117c   Data           4  cmos.o(.data)
    dataRbuf                                 0x20002374   Data        8192  xiaomu.o(.bss)
    R_nRF_Buffer                             0x2000c52c   Data         480  nrf.o(.bss)
    __initial_sp                             0x2000f5b8   Data           0  startup_stm32f10x_hd.o(STACK)



==============================================================================

Memory Map of the image

  Image Entry point : 0x08004131

  Load Region LR_IROM1 (Base: 0x08004000, Size: 0x000087f8, Max: 0x0001c000, ABSOLUTE, COMPRESSED[0x00006998])

    Execution Region ER_IROM1 (Base: 0x08004000, Size: 0x00006484, Max: 0x0001c000, ABSOLUTE)

    Base Addr    Size         Type   Attr      Idx    E Section Name        Object

    0x08004000   0x00000130   Data   RO            3    RESET               startup_stm32f10x_hd.o
    0x08004130   0x00000000   Code   RO         4674  * .ARM.Collect$$$$00000000  mc_w.l(entry.o)
    0x08004130   0x00000004   Code   RO         4711    .ARM.Collect$$$$00000001  mc_w.l(entry2.o)
    0x08004134   0x00000004   Code   RO         4714    .ARM.Collect$$$$00000004  mc_w.l(entry5.o)
    0x08004138   0x00000000   Code   RO         4716    .ARM.Collect$$$$00000008  mc_w.l(entry7b.o)
    0x08004138   0x00000000   Code   RO         4718    .ARM.Collect$$$$0000000A  mc_w.l(entry8b.o)
    0x08004138   0x00000008   Code   RO         4719    .ARM.Collect$$$$0000000B  mc_w.l(entry9a.o)
    0x08004140   0x00000000   Code   RO         4721    .ARM.Collect$$$$0000000D  mc_w.l(entry10a.o)
    0x08004140   0x00000000   Code   RO         4723    .ARM.Collect$$$$0000000F  mc_w.l(entry11a.o)
    0x08004140   0x00000004   Code   RO         4712    .ARM.Collect$$$$00002712  mc_w.l(entry2.o)
    0x08004144   0x0000003c   Code   RO            4    .text               startup_stm32f10x_hd.o
    0x08004180   0x00000024   Code   RO         4677    .text               mc_w.l(memcpya.o)
    0x080041a4   0x00000024   Code   RO         4679    .text               mc_w.l(memseta.o)
    0x080041c8   0x000000e4   Code   RO         4689    .text               mf_w.l(dmul.o)
    0x080042ac   0x00000022   Code   RO         4697    .text               mf_w.l(dflti.o)
    0x080042ce   0x00000032   Code   RO         4701    .text               mf_w.l(dfixui.o)
    0x08004300   0x0000001e   Code   RO         4725    .text               mc_w.l(llshl.o)
    0x0800431e   0x00000020   Code   RO         4727    .text               mc_w.l(llushr.o)
    0x0800433e   0x00000000   Code   RO         4731    .text               mc_w.l(iusefp.o)
    0x0800433e   0x000000be   Code   RO         4734    .text               mf_w.l(depilogue.o)
    0x080043fc   0x00000024   Code   RO         4736    .text               mc_w.l(init.o)
    0x08004420   0x0000005c   Code   RO         4746    .text               mc_w.l(__dczerorl2.o)
    0x0800447c   0x00000016   Code   RO         3748    i.ADC_Cmd           stm32f10x_adc.o
    0x08004492   0x00000014   Code   RO         3756    i.ADC_GetCalibrationStatus  stm32f10x_adc.o
    0x080044a6   0x00000008   Code   RO         3757    i.ADC_GetConversionValue  stm32f10x_adc.o
    0x080044ae   0x00000014   Code   RO         3762    i.ADC_GetResetCalibrationStatus  stm32f10x_adc.o
    0x080044c2   0x00000002   PAD
    0x080044c4   0x00000050   Code   RO         3766    i.ADC_Init          stm32f10x_adc.o
    0x08004514   0x000000b8   Code   RO         3770    i.ADC_RegularChannelConfig  stm32f10x_adc.o
    0x080045cc   0x0000000a   Code   RO         3771    i.ADC_ResetCalibration  stm32f10x_adc.o
    0x080045d6   0x00000016   Code   RO         3773    i.ADC_SoftwareStartConvCmd  stm32f10x_adc.o
    0x080045ec   0x0000000a   Code   RO         3775    i.ADC_StartCalibration  stm32f10x_adc.o
    0x080045f6   0x00000002   PAD
    0x080045f8   0x00000054   Code   RO          482    i.AddGraph          display.o
    0x0800464c   0x00000010   Code   RO         1985    i.Bat_GetAD         battery.o
    0x0800465c   0x00000018   Code   RO         1986    i.Bat_GetChargeState  battery.o
    0x08004674   0x00000018   Code   RO         1988    i.Bat_GetStandbyState  battery.o
    0x0800468c   0x000000dc   Code   RO         1991    i.Bat_Init          battery.o
    0x08004768   0x00000038   Code   RO         1992    i.Bat_IsChargForSlave  battery.o
    0x080047a0   0x0000001c   Code   RO         1994    i.Bat_IsCharging    battery.o
    0x080047bc   0x0000000c   Code   RO         4386    i.CMOS_GetTimer     cmos.o
    0x080047c8   0x00000010   Code   RO         4387    i.CMOS_GetTimerCount  cmos.o
    0x080047d8   0x0000000c   Code   RO         4388    i.CMOS_InitReg      cmos.o
    0x080047e4   0x0000001a   Code   RO         4389    i.CMOS_Initialization  cmos.o
    0x080047fe   0x0000006a   Code   RO         4390    i.CMOS_SetSystemClock  cmos.o
    0x08004868   0x00000066   Code   RO         4391    i.CMOS_Timer2Config  cmos.o
    0x080048ce   0x00000002   PAD
    0x080048d0   0x00000010   Code   RO         4392    i.CMOS_TimerProcess  cmos.o
    0x080048e0   0x00000024   Code   RO         4222    i.CRC_CalcBlockCRC  stm32f10x_crc.o
    0x08004904   0x0000000c   Code   RO         4224    i.CRC_GetCRC        stm32f10x_crc.o
    0x08004910   0x0000001e   Code   RO          357    i.CRC_MCU           hardware.o
    0x0800492e   0x00000002   PAD
    0x08004930   0x0000000c   Code   RO         4226    i.CRC_ResetDR       stm32f10x_crc.o
    0x0800493c   0x0000003e   Code   RO          358    i.CRC_SPI           hardware.o
    0x0800497a   0x00000002   PAD
    0x0800497c   0x00000034   Code   RO         4393    i.CheckAutoPowerOff  cmos.o
    0x080049b0   0x00000028   Code   RO          483    i.ClearGraphLayer   display.o
    0x080049d8   0x0000000c   Code   RO          484    i.ClearScreen       display.o
    0x080049e4   0x0000001c   Code   RO         4394    i.ClrAutoPowerOff   cmos.o
    0x08004a00   0x00000034   Code   RO          489    i.Console_Open      display.o
    0x08004a34   0x00000020   Code   RO         4084    i.DBGMCU_Config     stm32f10x_dbgmcu.o
    0x08004a54   0x00000014   Code   RO         1437    i.DB_Write          lcd.o
    0x08004a68   0x00000010   Code   RO         1758    i.Delay             mma7660fc.o
    0x08004a78   0x00000028   Code   RO          490    i.Display_CheckUpdate  display.o
    0x08004aa0   0x00000054   Code   RO          491    i.Display_Initialization  display.o
    0x08004af4   0x0000015c   Code   RO         1759    i.EXTI0_IRQHandler  mma7660fc.o
    0x08004c50   0x00000148   Code   RO         2060    i.EXTI15_10_IRQHandler  singlewireslave.o
    0x08004d98   0x00000060   Code   RO         1250    i.EXTI9_5_IRQHandler  nrf24l01.o
    0x08004df8   0x0000000c   Code   RO         4109    i.EXTI_ClearITPendingBit  stm32f10x_exti.o
    0x08004e04   0x00000028   Code   RO         4113    i.EXTI_GetITStatus  stm32f10x_exti.o
    0x08004e2c   0x00000094   Code   RO         4114    i.EXTI_Init         stm32f10x_exti.o
    0x08004ec0   0x00000040   Code   RO         4310    i.FIFO_GetPopIndex  cmlib.o
    0x08004f00   0x00000028   Code   RO         4311    i.FIFO_GetPushIndex  cmlib.o
    0x08004f28   0x00000010   Code   RO         4312    i.FIFO_Init         cmlib.o
    0x08004f38   0x00000008   Code   RO         4314    i.FIFO_Reset        cmlib.o
    0x08004f40   0x0000001c   Code   RO         3321    i.FLASH_PrefetchBufferCmd  stm32f10x_flash.o
    0x08004f5c   0x00000018   Code   RO         3326    i.FLASH_SetLatency  stm32f10x_flash.o
    0x08004f74   0x00000024   Code   RO         1550    i.F_DB_In           flash.o
    0x08004f98   0x00000024   Code   RO         1551    i.F_DB_Out          flash.o
    0x08004fbc   0x0000006e   Code   RO         1552    i.F_Enter_QPI_Mode  flash.o
    0x0800502a   0x00000002   PAD
    0x0800502c   0x00000058   Code   RO         1553    i.F_GPIO_QPI_Mode   flash.o
    0x08005084   0x00000080   Code   RO         1554    i.F_GPIO_SPI_Mode   flash.o
    0x08005104   0x00000040   Code   RO         1555    i.F_QPI_Check_JEDEC_ID  flash.o
    0x08005144   0x0000003c   Code   RO         1556    i.F_QPI_R           flash.o
    0x08005180   0x00000044   Code   RO         1557    i.F_QPI_W           flash.o
    0x080051c4   0x00000038   Code   RO         1558    i.F_SPI_Check_JEDEC_ID  flash.o
    0x080051fc   0x00000038   Code   RO         1559    i.F_SPI_R           flash.o
    0x08005234   0x0000003c   Code   RO         1560    i.F_SPI_W           flash.o
    0x08005270   0x00000014   Code   RO         1561    i.F_WR_Start        flash.o
    0x08005284   0x00000014   Code   RO         1562    i.F_WR_Stop         flash.o
    0x08005298   0x000000b4   Code   RO          662    i.File_GetGraphInfo  file.o
    0x0800534c   0x00000010   Code   RO          663    i.File_GetGraphSum  file.o
    0x0800535c   0x00000014   Code   RO          664    i.File_Read         file.o
    0x08005370   0x00000054   Code   RO          665    i.File_SetBaseAddr  file.o
    0x080053c4   0x00000032   Code   RO         1564    i.Flash_4K_Erase    flash.o
    0x080053f6   0x0000002e   Code   RO         1565    i.Flash_4K_Erase_Start  flash.o
    0x08005424   0x00000074   Code   RO         1568    i.Flash_Init        flash.o
    0x08005498   0x00000070   Code   RO         1570    i.Flash_Read        flash.o
    0x08005508   0x0000003c   Code   RO         1571    i.Flash_Read_Status_Reg  flash.o
    0x08005544   0x00000028   Code   RO         1572    i.Flash_Set_Read_Param  flash.o
    0x0800556c   0x00000026   Code   RO         1573    i.Flash_Wait_Done   flash.o
    0x08005592   0x00000086   Code   RO         1574    i.Flash_Write       flash.o
    0x08005618   0x00000012   Code   RO         1575    i.Flash_Write_Enable  flash.o
    0x0800562a   0x0000004e   Code   RO         1576    i.Flash_Write_Page  flash.o
    0x08005678   0x0000003c   Code   RO         1577    i.Flash_Write_Status_Reg  flash.o
    0x080056b4   0x00000040   Code   RO          492    i.FrushDspBuffer    display.o
    0x080056f4   0x00000038   Code   RO          493    i.FrushRectangle    display.o
    0x0800572c   0x00000054   Code   RO         2233    i.GD62429_GPIO_Init  gd62429.o
    0x08005780   0x00000078   Code   RO         2234    i.GD_I2C_W          gd62429.o
    0x080057f8   0x000000b8   Code   RO         1132    i.GEA_AddAnimation  hdr.o
    0x080058b0   0x0000004c   Code   RO          916    i.GEA_ClePutRef     slaverapis2.o
    0x080058fc   0x00000048   Code   RO         1133    i.GEA_ClearAnimationFifo  hdr.o
    0x08005944   0x00000022   Code   RO          917    i.GEA_ClearLayer    slaverapis2.o
    0x08005966   0x00000048   Code   RO         1134    i.GEA_DeleteAnimation  hdr.o
    0x080059ae   0x00000010   Code   RO          978    i.GEA_GetGName      config.o
    0x080059be   0x00000002   PAD
    0x080059c0   0x000000c0   Code   RO          918    i.GEA_GetJoyStickStatus  slaverapis2.o
    0x08005a80   0x00000020   Code   RO         2201    i.GEA_GetNearStatus  send.o
    0x08005aa0   0x0000003c   Code   RO         1916    i.GEA_GetSpeechStatus  sentence.o
    0x08005adc   0x0000001e   Code   RO         1917    i.GEA_LoopSpeech    sentence.o
    0x08005afa   0x00000002   PAD
    0x08005afc   0x0000003c   Code   RO         1708    i.GEA_MotorCtrl     motor.o
    0x08005b38   0x0000001c   Code   RO         1135    i.GEA_PlayAnimation  hdr.o
    0x08005b54   0x00000058   Code   RO         1918    i.GEA_PlaySpeech    sentence.o
    0x08005bac   0x0000000a   Code   RO          139    i.GEA_PowerOff      xiaomu.o
    0x08005bb6   0x00000044   Code   RO          919    i.GEA_PutGraph      slaverapis2.o
    0x08005bfa   0x0000000e   Code   RO          979    i.GEA_SetGName      config.o
    0x08005c08   0x00000070   Code   RO          920    i.GEA_SetMode       slaverapis2.o
    0x08005c78   0x00000064   Code   RO         1919    i.GEA_SetSpeechList  sentence.o
    0x08005cdc   0x00000018   Code   RO         4395    i.GEA_SetTimCnt     cmos.o
    0x08005cf4   0x00000028   Code   RO          921    i.GEA_SlaverState   slaverapis2.o
    0x08005d1c   0x00000048   Code   RO         1136    i.GEA_StopAnimation  hdr.o
    0x08005d64   0x0000003c   Code   RO         1920    i.GEA_StopSpeech    sentence.o
    0x08005da0   0x0000000a   Code   RO          140    i.GEA_Transport     xiaomu.o
    0x08005daa   0x00000002   PAD
    0x08005dac   0x00000040   Code   RO         2265    i.GPIO_EXTILineConfig  stm32f10x_gpio.o
    0x08005dec   0x00000112   Code   RO         2268    i.GPIO_Init         stm32f10x_gpio.o
    0x08005efe   0x00000002   PAD
    0x08005f00   0x00000090   Code   RO         2270    i.GPIO_PinRemapConfig  stm32f10x_gpio.o
    0x08005f90   0x00000012   Code   RO         2272    i.GPIO_ReadInputDataBit  stm32f10x_gpio.o
    0x08005fa2   0x00000004   Code   RO         2275    i.GPIO_ResetBits    stm32f10x_gpio.o
    0x08005fa6   0x00000004   Code   RO         2276    i.GPIO_SetBits      stm32f10x_gpio.o
    0x08005faa   0x0000000a   Code   RO         2279    i.GPIO_WriteBit     stm32f10x_gpio.o
    0x08005fb4   0x00000030   Code   RO          141    i.G_CallFuntion     xiaomu.o
    0x08005fe4   0x0000005c   Code   RO          666    i.GetResourceAddr   file.o
    0x08006040   0x00000016   Code   RO          667    i.GetResourceData   file.o
    0x08006056   0x00000022   Code   RO          668    i.GetResourceDataP  file.o
    0x08006078   0x0000002a   Code   RO          669    i.GetResourceItemAddr  file.o
    0x080060a2   0x0000001e   Code   RO          670    i.GetResourceItemNum  file.o
    0x080060c0   0x00000046   Code   RO         1760    i.GetShakeRate      mma7660fc.o
    0x08006106   0x000000ac   Code   RO          494    i.GetVisibleRegion  display.o
    0x080061b2   0x00000230   Code   RO          761    i.Get_Box_XYZ       g-sensor.o
    0x080063e2   0x00000002   PAD
    0x080063e4   0x00000088   Code   RO         1761    i.I2C_R             mma7660fc.o
    0x0800646c   0x0000002c   Code   RO         1762    i.I2C_Start         mma7660fc.o
    0x08006498   0x00000020   Code   RO         1763    i.I2C_Stop          mma7660fc.o
    0x080064b8   0x0000008c   Code   RO         1764    i.I2C_W             mma7660fc.o
    0x08006544   0x00000010   Code   RO         4042    i.IWDG_Enable       stm32f10x_iwdg.o
    0x08006554   0x00000010   Code   RO         4044    i.IWDG_ReloadCounter  stm32f10x_iwdg.o
    0x08006564   0x0000000c   Code   RO         4045    i.IWDG_SetPrescaler  stm32f10x_iwdg.o
    0x08006570   0x0000000c   Code   RO         4046    i.IWDG_SetReload    stm32f10x_iwdg.o
    0x0800657c   0x0000000c   Code   RO         4047    i.IWDG_WriteAccessCmd  stm32f10x_iwdg.o
    0x08006588   0x00000070   Code   RO          980    i.InitConfig        config.o
    0x080065f8   0x00000010   Code   RO         4470    i.IsVoiceBusy       audio.o
    0x08006608   0x0000004c   Code   RO         1438    i.Lcd_GPIOInit      lcd.o
    0x08006654   0x00000024   Code   RO         1439    i.Lcd_Init          lcd.o
    0x08006678   0x00000024   Code   RO         1440    i.Lcd_Off           lcd.o
    0x0800669c   0x0000002c   Code   RO         1441    i.Lcd_On            lcd.o
    0x080066c8   0x0000001e   Code   RO         1443    i.Lcd_RefreshScreen  lcd.o
    0x080066e6   0x00000002   PAD
    0x080066e8   0x00000020   Code   RO         1444    i.Lcd_Reset         lcd.o
    0x08006708   0x00000054   Code   RO         1447    i.Lcd_Set_Window    lcd.o
    0x0800675c   0x00000068   Code   RO         1448    i.Lcd_Write_Buf     lcd.o
    0x080067c4   0x0000002c   Code   RO         1449    i.Lcd_Write_Cmd     lcd.o
    0x080067f0   0x0000002c   Code   RO         1450    i.Lcd_Write_Param   lcd.o
    0x0800681c   0x0000001c   Code   RO         1452    i.Lcd_initOn        lcd.o
    0x08006838   0x0000006c   Code   RO         1766    i.MMA7660FC_GPIO_Init  mma7660fc.o
    0x080068a4   0x00000080   Code   RO         1767    i.MMA7660FC_GetShakeState  mma7660fc.o
    0x08006924   0x00000046   Code   RO         1768    i.MMA7660FC_INT_Init  mma7660fc.o
    0x0800696a   0x00000002   PAD
    0x0800696c   0x000000b8   Code   RO         1769    i.MMA7660FC_Init    mma7660fc.o
    0x08006a24   0x0000001a   Code   RO         1772    i.MMA7660FC_Standby  mma7660fc.o
    0x08006a3e   0x00000002   PAD
    0x08006a40   0x0000001c   Code   RO         1775    i.MMA7660FC_To_Angle  mma7660fc.o
    0x08006a5c   0x00000054   Code   RO         1776    i.MMA7660FC_XYZ     mma7660fc.o
    0x08006ab0   0x00000020   Code   RO         1710    i.Motor_Check       motor.o
    0x08006ad0   0x00000030   Code   RO         1711    i.Motor_Init        motor.o
    0x08006b00   0x00000018   Code   RO         1712    i.Motor_Off         motor.o
    0x08006b18   0x00000018   Code   RO         1713    i.Motor_On          motor.o
    0x08006b30   0x00000074   Code   RO         2720    i.NVIC_Init         misc.o
    0x08006ba4   0x00000014   Code   RO         2721    i.NVIC_PriorityGroupConfig  misc.o
    0x08006bb8   0x0000003c   Code   RO         2202    i.NearSensorInit    send.o
    0x08006bf4   0x0000006c   Code   RO         2174    i.ONELINE_Init      oneline.o
    0x08006c60   0x00000074   Code   RO         4471    i.PlayVoice         audio.o
    0x08006cd4   0x00000014   Code   RO          496    i.PutChar           display.o
    0x08006ce8   0x0000008c   Code   RO          497    i.PutChar8x16       display.o
    0x08006d74   0x00000244   Code   RO          498    i.PutGraph          display.o
    0x08006fb8   0x00000046   Code   RO          500    i.PutHex            display.o
    0x08006ffe   0x00000044   Code   RO          501    i.PutHexBlock       display.o
    0x08007042   0x0000002c   Code   RO          503    i.PutString         display.o
    0x0800706e   0x00000002   PAD
    0x08007070   0x00000018   Code   RO         2520    i.RCC_ADCCLKConfig  stm32f10x_rcc.o
    0x08007088   0x00000020   Code   RO         2522    i.RCC_APB1PeriphClockCmd  stm32f10x_rcc.o
    0x080070a8   0x00000020   Code   RO         2523    i.RCC_APB1PeriphResetCmd  stm32f10x_rcc.o
    0x080070c8   0x00000020   Code   RO         2524    i.RCC_APB2PeriphClockCmd  stm32f10x_rcc.o
    0x080070e8   0x00000020   Code   RO         2525    i.RCC_APB2PeriphResetCmd  stm32f10x_rcc.o
    0x08007108   0x0000004c   Code   RO         2531    i.RCC_DeInit        stm32f10x_rcc.o
    0x08007154   0x000000d4   Code   RO         2532    i.RCC_GetClocksFreq  stm32f10x_rcc.o
    0x08007228   0x0000003c   Code   RO         2533    i.RCC_GetFlagStatus  stm32f10x_rcc.o
    0x08007264   0x00000010   Code   RO         2535    i.RCC_GetSYSCLKSource  stm32f10x_rcc.o
    0x08007274   0x00000018   Code   RO         2536    i.RCC_HCLKConfig    stm32f10x_rcc.o
    0x0800728c   0x0000004c   Code   RO         2537    i.RCC_HSEConfig     stm32f10x_rcc.o
    0x080072d8   0x00000018   Code   RO         2543    i.RCC_PCLK1Config   stm32f10x_rcc.o
    0x080072f0   0x00000018   Code   RO         2544    i.RCC_PCLK2Config   stm32f10x_rcc.o
    0x08007308   0x0000000c   Code   RO         2545    i.RCC_PLLCmd        stm32f10x_rcc.o
    0x08007314   0x0000001c   Code   RO         2546    i.RCC_PLLConfig     stm32f10x_rcc.o
    0x08007330   0x00000018   Code   RO         2549    i.RCC_SYSCLKConfig  stm32f10x_rcc.o
    0x08007348   0x00000038   Code   RO         2551    i.RCC_WaitForHSEStartUp  stm32f10x_rcc.o
    0x08007380   0x00000058   Code   RO          504    i.RGB2Y             display.o
    0x080073d8   0x00000034   Code   RO          505    i.RGBtosixteen      display.o
    0x0800740c   0x000000b4   Code   RO          412    i.RS_ConfigHW       usart.o
    0x080074c0   0x00000010   Code   RO          413    i.RS_ConfigReg      usart.o
    0x080074d0   0x00000010   Code   RO          415    i.RS_Init           usart.o
    0x080074e0   0x0000002e   Code   RO         1777    i.Read_Reg          mma7660fc.o
    0x0800750e   0x00000048   Code   RO         1778    i.Read_Reg_Queue    mma7660fc.o
    0x08007556   0x00000002   PAD
    0x08007558   0x0000005c   Code   RO          506    i.RefreshGraphs     display.o
    0x080075b4   0x00000028   Code   RO          507    i.RefreshScreen     display.o
    0x080075dc   0x00000012   Code   RO         1251    i.ResetRecieveMode  nrf24l01.o
    0x080075ee   0x0000000c   Code   RO          981    i.Resetproisok      config.o
    0x080075fa   0x00000002   PAD
    0x080075fc   0x00000020   Code   RO         1779    i.SDA_In            mma7660fc.o
    0x0800761c   0x00000020   Code   RO         1780    i.SDA_Out           mma7660fc.o
    0x0800763c   0x00000018   Code   RO         2381    i.SPI_Cmd           stm32f10x_spi.o
    0x08007654   0x00000006   Code   RO         2385    i.SPI_I2S_ClearFlag  stm32f10x_spi.o
    0x0800765a   0x00000012   Code   RO         2389    i.SPI_I2S_GetFlagStatus  stm32f10x_spi.o
    0x0800766c   0x00000006   Code   RO         2392    i.SPI_I2S_ReceiveData  stm32f10x_spi.o
    0x08007672   0x00000004   Code   RO         2393    i.SPI_I2S_SendData  stm32f10x_spi.o
    0x08007676   0x0000003c   Code   RO         2394    i.SPI_Init          stm32f10x_spi.o
    0x080076b2   0x00000002   PAD
    0x080076b4   0x000000ec   Code   RO         1252    i.SPI_NRF_Init      nrf24l01.o
    0x080077a0   0x0000000c   Code   RO         2061    i.SWS_BytesToRead   singlewireslave.o
    0x080077ac   0x000000c4   Code   RO         2063    i.SWS_Init          singlewireslave.o
    0x08007870   0x00000018   Code   RO         2064    i.SWS_ReadBytes     singlewireslave.o
    0x08007888   0x00000044   Code   RO         2067    i.SWS_SendBytes     singlewireslave.o
    0x080078cc   0x00000038   Code   RO         2070    i.SWS_getBytes      singlewireslave.o
    0x08007904   0x000001e0   Code   RO          142    i.SW_Check          xiaomu.o
    0x08007ae4   0x00000038   Code   RO         1253    i.SendMessage       nrf24l01.o
    0x08007b1c   0x00000014   Code   RO          508    i.SetDisplayUpdate  display.o
    0x08007b30   0x00000008   Code   RO         4274    i.SetSysClock       system_stm32f10x.o
    0x08007b38   0x000000dc   Code   RO         4275    i.SetSysClockTo72   system_stm32f10x.o
    0x08007c14   0x0000000c   Code   RO         4472    i.StopBGM           audio.o
    0x08007c20   0x0000000c   Code   RO         4473    i.StopVoice         audio.o
    0x08007c2c   0x00000060   Code   RO         4277    i.SystemInit        system_stm32f10x.o
    0x08007c8c   0x00000038   Code   RO          116    i.TIM2_IRQHandler   stm32f10x_it.o
    0x08007cc4   0x00000110   Code   RO         4595    i.TIM3_IRQHandler   pcm.o
    0x08007dd4   0x00000006   Code   RO         2766    i.TIM_ClearFlag     stm32f10x_tim.o
    0x08007dda   0x00000006   Code   RO         2767    i.TIM_ClearITPendingBit  stm32f10x_tim.o
    0x08007de0   0x00000018   Code   RO         2772    i.TIM_Cmd           stm32f10x_tim.o
    0x08007df8   0x000001e8   Code   RO         2777    i.TIM_DeInit        stm32f10x_tim.o
    0x08007fe0   0x00000022   Code   RO         2793    i.TIM_GetITStatus   stm32f10x_tim.o
    0x08008002   0x00000012   Code   RO         2797    i.TIM_ITConfig      stm32f10x_tim.o
    0x08008014   0x000000a4   Code   RO         2843    i.TIM_TimeBaseInit  stm32f10x_tim.o
    0x080080b8   0x00000018   Code   RO         3563    i.USART_Cmd         stm32f10x_usart.o
    0x080080d0   0x0000004a   Code   RO         3569    i.USART_ITConfig    stm32f10x_usart.o
    0x0800811a   0x00000002   PAD
    0x0800811c   0x000000d8   Code   RO         3570    i.USART_Init        stm32f10x_usart.o
    0x080081f4   0x00000014   Code   RO          982    i.WriteSlaverID     config.o
    0x08008208   0x00000022   Code   RO         1781    i.Write_Reg         mma7660fc.o
    0x0800822a   0x00000002   PAD
    0x0800822c   0x00000078   Code   RO         4474    i._PlayBGM          audio.o
    0x080082a4   0x0000000e   Code   RO         4740    i.__scatterload_copy  mc_w.l(handlers.o)
    0x080082b2   0x00000002   Code   RO         4741    i.__scatterload_null  mc_w.l(handlers.o)
    0x080082b4   0x0000000e   Code   RO         4742    i.__scatterload_zeroinit  mc_w.l(handlers.o)
    0x080082c2   0x00000002   PAD
    0x080082c4   0x000000d8   Code   RO         4651    i.adpcm_decoder     adpcm.o
    0x0800839c   0x0000001c   Code   RO         4475    i.audio_Init        audio.o
    0x080083b8   0x00000088   Code   RO         4476    i.audio_checkmsg    audio.o
    0x08008440   0x0000003c   Code   RO         4318    i.ccopy             cmlib.o
    0x0800847c   0x00000112   Code   RO         4542    i.chanel_fillbuf    chanel.o
    0x0800858e   0x00000002   PAD
    0x08008590   0x000001b4   Code   RO          143    i.checkpower        xiaomu.o
    0x08008744   0x0000001c   Code   RO          983    i.configchecksum    config.o
    0x08008760   0x00000020   Code   RO         4557    i.decode            decode.o
    0x08008780   0x00000028   Code   RO         2071    i.fifo_read_buf     singlewireslave.o
    0x080087a8   0x0000002c   Code   RO         2072    i.fifo_read_byte    singlewireslave.o
    0x080087d4   0x0000000a   Code   RO         2073    i.fifo_reset        singlewireslave.o
    0x080087de   0x00000006   Code   RO         2074    i.fifo_set_buf      singlewireslave.o
    0x080087e4   0x00000020   Code   RO         2075    i.fifo_write_buf    singlewireslave.o
    0x08008804   0x0000002c   Code   RO         2076    i.fifo_write_byte   singlewireslave.o
    0x08008830   0x00000014   Code   RO          764    i.gSensor_Box_X_Angle  g-sensor.o
    0x08008844   0x00000014   Code   RO          767    i.gSensor_Box_Y_Angle  g-sensor.o
    0x08008858   0x00000014   Code   RO          770    i.gSensor_Box_Z_Angle  g-sensor.o
    0x0800886c   0x00000008   Code   RO          771    i.gSensor_Init      g-sensor.o
    0x08008874   0x000000b4   Code   RO          773    i.gSensor_TopSurface  g-sensor.o
    0x08008928   0x00000058   Code   RO          774    i.gSensor_Update    g-sensor.o
    0x08008980   0x00000034   Code   RO          775    i.gSensor_WaveRank  g-sensor.o
    0x080089b4   0x00000008   Code   RO          984    i.getConfig         config.o
    0x080089bc   0x0000000c   Code   RO         1714    i.getMotorFlag      motor.o
    0x080089c8   0x00000082   Code   RO          985    i.getgname          config.o
    0x08008a4a   0x00000002   PAD
    0x08008a4c   0x00000244   Code   RO          360    i.hardware_main     hardware.o
    0x08008c90   0x00000010   Code   RO         1137    i.hdr_Init          hdr.o
    0x08008ca0   0x00000144   Code   RO         1138    i.hdr_check         hdr.o
    0x08008de4   0x00000026   Code   RO         1139    i.hdr_open          hdr.o
    0x08008e0a   0x00000002   PAD
    0x08008e0c   0x000000ac   Code   RO         1140    i.hdraction         hdr.o
    0x08008eb8   0x00000010   Code   RO         2236    i.i2c_Delay         gd62429.o
    0x08008ec8   0x00000022   Code   RO          144    i.initionNRF        xiaomu.o
    0x08008eea   0x00000026   Code   RO         1141    i.layer2index       hdr.o
    0x08008f10   0x00000018   Code   RO         4396    i.mDelay            cmos.o
    0x08008f28   0x00000018   Code   RO           10    i.main              main.o
    0x08008f40   0x000000ac   Code   RO         4578    i.mixchanel         mix.o
    0x08008fec   0x00000054   Code   RO         1254    i.nRF_Check         nrf24l01.o
    0x08009040   0x0000000c   Code   RO         1255    i.nRF_ClearStatusRegister  nrf24l01.o
    0x0800904c   0x0000004c   Code   RO         1256    i.nRF_EXTIcfg       nrf24l01.o
    0x08009098   0x00000012   Code   RO         1257    i.nRF_FlushRxBuffer  nrf24l01.o
    0x080090aa   0x00000012   Code   RO         1258    i.nRF_FlushTxBuffer  nrf24l01.o
    0x080090bc   0x00000038   Code   RO          729    i.nRF_GetMessage    nrf.o
    0x080090f4   0x00000016   Code   RO         1260    i.nRF_GetStatusRegister  nrf24l01.o
    0x0800910a   0x00000002   PAD
    0x0800910c   0x0000009c   Code   RO          145    i.nRF_IRQHandler    xiaomu.o
    0x080091a8   0x00000038   Code   RO         1261    i.nRF_Init          nrf24l01.o
    0x080091e0   0x00000064   Code   RO         1262    i.nRF_InitReg       nrf24l01.o
    0x08009244   0x0000003c   Code   RO          730    i.nRF_Initialization  nrf.o
    0x08009280   0x0000002c   Code   RO         1263    i.nRF_PowerDown     nrf24l01.o
    0x080092ac   0x0000002a   Code   RO         1264    i.nRF_ReadRxBuffer  nrf24l01.o
    0x080092d6   0x00000002   PAD
    0x080092d8   0x0000011c   Code   RO          146    i.nRF_ReceiveDataHandler  xiaomu.o
    0x080093f4   0x00000024   Code   RO         1265    i.nRF_RecieveMode   nrf24l01.o
    0x08009418   0x00000034   Code   RO         1266    i.nRF_RegisterReadBuffer  nrf24l01.o
    0x0800944c   0x00000034   Code   RO         1268    i.nRF_RegisterWriteBuffer  nrf24l01.o
    0x08009480   0x00000022   Code   RO         1269    i.nRF_RegisterWriteByte  nrf24l01.o
    0x080094a2   0x00000002   PAD
    0x080094a4   0x00000038   Code   RO         1271    i.nRF_SPIRW         nrf24l01.o
    0x080094dc   0x00000018   Code   RO         1272    i.nRF_SPIStart      nrf24l01.o
    0x080094f4   0x00000010   Code   RO         1273    i.nRF_SPIStop       nrf24l01.o
    0x08009504   0x0000001c   Code   RO          731    i.nRF_SetAddress    nrf.o
    0x08009520   0x0000000c   Code   RO         1274    i.nRF_StandbyMode   nrf24l01.o
    0x0800952c   0x00000024   Code   RO         1275    i.nRF_TxSendData    nrf24l01.o
    0x08009550   0x0000005c   Code   RO         1276    i.nRF_TxSetRP1P2    nrf24l01.o
    0x080095ac   0x00000028   Code   RO         1277    i.nRF_TxSetTXRP0    nrf24l01.o
    0x080095d4   0x00000028   Code   RO         1278    i.nRF_WriteTxBuffer  nrf24l01.o
    0x080095fc   0x0000004c   Code   RO          986    i.nRF_getAddr       config.o
    0x08009648   0x00000054   Code   RO          987    i.nRF_setAddr       config.o
    0x0800969c   0x00000064   Code   RO          988    i.nRF_updateAddr    config.o
    0x08009700   0x000000fc   Code   RO         4596    i.pcm_Init          pcm.o
    0x080097fc   0x00000038   Code   RO         4597    i.pcm_Init_Shutdown_Pin  pcm.o
    0x08009834   0x0000001c   Code   RO         4598    i.pcm_checkbuf      pcm.o
    0x08009850   0x00000038   Code   RO         4599    i.pcm_close         pcm.o
    0x08009888   0x00000034   Code   RO         4600    i.pcm_fillbuf       pcm.o
    0x080098bc   0x00000068   Code   RO         4602    i.pcm_open          pcm.o
    0x08009924   0x0000008c   Code   RO         1142    i.play_check        hdr.o
    0x080099b0   0x0000003c   Code   RO         1143    i.play_status       hdr.o
    0x080099ec   0x00000050   Code   RO         4477    i.playbgm           audio.o
    0x08009a3c   0x00000010   Code   RO         1783    i.poweroff          mma7660fc.o
    0x08009a4c   0x00000034   Code   RO         1784    i.poweron           mma7660fc.o
    0x08009a80   0x0000000c   Code   RO          989    i.readSlaverID      config.o
    0x08009a8c   0x0000004c   Code   RO          147    i.resetupdate       xiaomu.o
    0x08009ad8   0x00000030   Code   RO         2203    i.send_Init         send.o
    0x08009b08   0x000000cc   Code   RO         2204    i.sendservice       send.o
    0x08009bd4   0x00000024   Code   RO         1921    i.sentencePlay      sentence.o
    0x08009bf8   0x00000018   Code   RO         2176    i.setLine           oneline.o
    0x08009c10   0x00000030   Code   RO         2077    i.set_mode          singlewireslave.o
    0x08009c40   0x00000098   Code   RO          990    i.setgname          config.o
    0x08009cd8   0x00000024   Code   RO          148    i.shutdown          xiaomu.o
    0x08009cfc   0x00000214   Code   RO          149    i.slaver_main       xiaomu.o
    0x08009f10   0x0000007e   Code   RO          150    i.slaverpowerOff    xiaomu.o
    0x08009f8e   0x00000002   PAD
    0x08009f90   0x0000009c   Code   RO         1922    i.sndInit           sentence.o
    0x0800a02c   0x00000178   Code   RO         1923    i.stCheck           sentence.o
    0x0800a1a4   0x00000060   Code   RO         1924    i.stFillBuf         sentence.o
    0x0800a204   0x00000074   Code   RO         1925    i.stOpenSentence    sentence.o
    0x0800a278   0x0000001a   Code   RO         4397    i.uDelay            cmos.o
    0x0800a292   0x00000002   PAD
    0x0800a294   0x00000030   Code   RO          151    i.updateend         xiaomu.o
    0x0800a2c4   0x00000074   Code   RO          152    i.updategame        xiaomu.o
    0x0800a338   0x00000014   Code   RO          991    i.witeproisok       config.o
    0x0800a34c   0x0000002a   Code   RO          992    i.writeconfig       config.o
    0x0800a376   0x00000002   PAD
    0x0800a378   0x0000003c   Data   RO          361    .constdata          hardware.o
    0x0800a3b4   0x000000b0   Data   RO          966    .constdata          genginecfg.o
    0x0800a464   0x00000020   Data   RO         4738    Region$$Table       anon$$obj.o


    Execution Region RW_IRAM1 (Base: 0x20000000, Size: 0x0000f5b8, Max: 0x00010000, ABSOLUTE, COMPRESSED[0x00000514])

    Base Addr    Size         Type   Attr      Idx    E Section Name        Object

    0x20000000   0x00000001   Data   RW          117    .data               stm32f10x_it.o
    0x20000001   0x00000003   PAD
    0x20000004   0x00000031   Data   RW          154    .data               xiaomu.o
    0x20000035   0x00000001   PAD
    0x20000036   0x00000006   Data   RW          422    .data               usart.o
    0x2000003c   0x00001010   Data   RW          510    .data               display.o
    0x2000104c   0x00000008   Data   RW          733    .data               nrf.o
    0x20001054   0x00000014   Data   RW          785    .data               g-sensor.o
    0x20001068   0x00000007   Data   RW         1279    .data               nrf24l01.o
    0x2000106f   0x00000001   Data   RW         1453    .data               lcd.o
    0x20001070   0x00000005   Data   RW         1715    .data               motor.o
    0x20001075   0x00000003   PAD
    0x20001078   0x000000b4   Data   RW         1786    .data               mma7660fc.o
    0x2000112c   0x00000008   Data   RW         1927    .data               sentence.o
    0x20001134   0x00000004   Data   RW         1995    .data               battery.o
    0x20001138   0x00000022   Data   RW         2079    .data               singlewireslave.o
    0x2000115a   0x00000002   PAD
    0x2000115c   0x00000004   Data   RW         2206    .data               send.o
    0x20001160   0x00000014   Data   RW         2552    .data               stm32f10x_rcc.o
    0x20001174   0x0000000c   Data   RW         4398    .data               cmos.o
    0x20001180   0x00001038   Data   RW         4479    .data               audio.o
    0x200021b8   0x00000018   Data   RW         4603    .data               pcm.o
    0x200021d0   0x000001a4   Data   RW         4652    .data               adpcm.o
    0x20002374   0x00002000   Zero   RW          153    .bss                xiaomu.o
    0x20004374   0x00008180   Zero   RW          509    .bss                display.o
    0x2000c4f4   0x00000038   Zero   RW          671    .bss                file.o
    0x2000c52c   0x000001e0   Zero   RW          732    .bss                nrf.o
    0x2000c70c   0x0000001c   Zero   RW          993    .bss                config.o
    0x2000c728   0x00000190   Zero   RW         1144    .bss                hdr.o
    0x2000c8b8   0x0000005a   Zero   RW         1785    .bss                mma7660fc.o
    0x2000c912   0x00000002   PAD
    0x2000c914   0x00000048   Zero   RW         1926    .bss                sentence.o
    0x2000c95c   0x0000003c   Zero   RW         2078    .bss                singlewireslave.o
    0x2000c998   0x0000001c   Zero   RW         2205    .bss                send.o
    0x2000c9b4   0x00002004   Zero   RW         4478    .bss                audio.o
    0x2000e9b8   0x00000c00   Zero   RW            1    STACK               startup_stm32f10x_hd.o


==============================================================================

Image component sizes


      Code (inc. data)   RO Data    RW Data    ZI Data      Debug   Object Name

       216         14          0        420          0       1448   adpcm.o
       520         50          0       4152       8196       6227   audio.o
       368         38          0          4          0      11877   battery.o
       274          0          0          0          0       1173   chanel.o
       188          0          0          0          0       2784   cmlib.o
       444         52          0         12          0      25696   cmos.o
       826         56          0          0         28       7962   config.o
         0          0          0          0          0      16952   dac.o
        32          0          0          0          0       1785   decode.o
      1818         82          0       4112      33152      12946   display.o
       520         16          0          0         56       5648   file.o
      1554         92          0          0          0      11924   flash.o
       948         74          0         20          0       5036   g-sensor.o
       220         10          0          0          0       1347   gd62429.o
         0          0        176          0          0       1367   genginecfg.o
       672         32         60          0          0       2780   hardware.o
      1216         26          0          0        400       7115   hdr.o
       578         52          0          1          0       6130   lcd.o
        24          8          0          0          0     216535   main.o
       136         24          0          0          0       1283   misc.o
       172          6          0          0          0       1136   mix.o
      1698        144          0        180         90      12518   mma7660fc.o
       200         38          0          5          0       2529   motor.o
       144         36          0          8        480       2013   nrf.o
      1368        138          0          7          0      21810   nrf24l01.o
       132         20          0          0          0        917   oneline.o
       820        134          0         24          0       4145   pcm.o
       344         50          0          4         28       1910   send.o
      1118        166          0          8         72       6313   sentence.o
       908        108          0         34         60       7675   singlewireslave.o
       522         18          0          0          0       3416   slaverapis2.o
        60         16        304          0       3072        824   startup_stm32f10x_hd.o
       376         10          0          0          0      15493   stm32f10x_adc.o
        60         14          0          0          0       1578   stm32f10x_crc.o
        32          6          0          0          0        476   stm32f10x_dbgmcu.o
       200         18          0          0          0       1756   stm32f10x_exti.o
        52         12          0          0          0        921   stm32f10x_flash.o
       518         10          0          0          0       4988   stm32f10x_gpio.o
        56          4          0          1          0      20806   stm32f10x_it.o
        68         30          0          0          0       2062   stm32f10x_iwdg.o
       784        110          0         20          0      10583   stm32f10x_rcc.o
       118          0          0          0          0       3774   stm32f10x_spi.o
       740        106          0          0          0       4195   stm32f10x_tim.o
       314          6          0          0          0       9286   stm32f10x_usart.o
       324         26          0          0          0       1629   system_stm32f10x.o
       212         16          0          6          0       9830   usart.o
      2392        184          0         49       8192     228215   xiaomu.o

    ----------------------------------------------------------------------
     24344       2052        572       9076      53828     728813   Object Totals
         0          0         32          0          0          0   (incl. Generated)
        58          0          0          9          2          0   (incl. Padding)

    ----------------------------------------------------------------------

      Code (inc. data)   RO Data    RW Data    ZI Data      Debug   Library Member Name

        92          0          0          0          0          0   __dczerorl2.o
         0          0          0          0          0          0   entry.o
         0          0          0          0          0          0   entry10a.o
         0          0          0          0          0          0   entry11a.o
         8          4          0          0          0          0   entry2.o
         4          0          0          0          0          0   entry5.o
         0          0          0          0          0          0   entry7b.o
         0          0          0          0          0          0   entry8b.o
         8          4          0          0          0          0   entry9a.o
        30          0          0          0          0          0   handlers.o
        36          8          0          0          0         68   init.o
         0          0          0          0          0          0   iusefp.o
        30          0          0          0          0         68   llshl.o
        32          0          0          0          0         68   llushr.o
        36          0          0          0          0         68   memcpya.o
        36          0          0          0          0        108   memseta.o
       190          0          0          0          0        176   depilogue.o
        50          0          0          0          0         76   dfixui.o
        34          0          0          0          0         76   dflti.o
       228          0          0          0          0         96   dmul.o

    ----------------------------------------------------------------------
       816         16          0          0          0        804   Library Totals
         2          0          0          0          0          0   (incl. Padding)

    ----------------------------------------------------------------------

      Code (inc. data)   RO Data    RW Data    ZI Data      Debug   Library Name

       312         16          0          0          0        380   mc_w.l
       502          0          0          0          0        424   mf_w.l

    ----------------------------------------------------------------------
       816         16          0          0          0        804   Library Totals

    ----------------------------------------------------------------------

==============================================================================


      Code (inc. data)   RO Data    RW Data    ZI Data      Debug   

     25160       2068        572       9076      53828     712457   Grand Totals
     25160       2068        572       1300      53828     712457   ELF Image Totals (compressed)
     25160       2068        572       1300          0          0   ROM Totals

==============================================================================

    Total RO  Size (Code + RO Data)                25732 (  25.13kB)
    Total RW  Size (RW Data + ZI Data)             62904 (  61.43kB)
    Total ROM Size (Code + RO Data + RW Data)      27032 (  26.40kB)

==============================================================================

